Component: ARM Compiler 5.06 update 7 (build 960) Tool: armlink [4d3601]

==============================================================================

Section Cross References

    system_stm32f10x.o(i.SystemCoreClockUpdate) refers to system_stm32f10x.o(.data) for .data
    system_stm32f10x.o(i.SystemInit) refers to system_stm32f10x.o(i.SetSysClockTo72) for SetSysClockTo72
    startup_stm32f10x_hd.o(STACK) refers (Special) to heapauxi.o(.text) for __use_two_region_memory
    startup_stm32f10x_hd.o(HEAP) refers (Special) to heapauxi.o(.text) for __use_two_region_memory
    startup_stm32f10x_hd.o(RESET) refers (Special) to heapauxi.o(.text) for __use_two_region_memory
    startup_stm32f10x_hd.o(RESET) refers to startup_stm32f10x_hd.o(STACK) for __initial_sp
    startup_stm32f10x_hd.o(RESET) refers to startup_stm32f10x_hd.o(.text) for Reset_Handler
    startup_stm32f10x_hd.o(RESET) refers to context_rvds.o(.text) for HardFault_Handler
    startup_stm32f10x_hd.o(RESET) refers to board.o(i.SysTick_Handler) for SysTick_Handler
    startup_stm32f10x_hd.o(RESET) refers to ov7725_entrance.o(i.EXTI9_5_IRQHandler) for EXTI9_5_IRQHandler
    startup_stm32f10x_hd.o(RESET) refers to esp8266.o(i.USART3_IRQHandler) for USART3_IRQHandler
    startup_stm32f10x_hd.o(RESET) refers to ov7725_exit.o(i.EXTI15_10_IRQHandler) for EXTI15_10_IRQHandler
    startup_stm32f10x_hd.o(.text) refers (Special) to heapauxi.o(.text) for __use_two_region_memory
    startup_stm32f10x_hd.o(.text) refers to system_stm32f10x.o(i.SystemInit) for SystemInit
    startup_stm32f10x_hd.o(.text) refers to __main.o(!!!main) for __main
    startup_stm32f10x_hd.o(.text) refers to startup_stm32f10x_hd.o(HEAP) for Heap_Mem
    startup_stm32f10x_hd.o(.text) refers to startup_stm32f10x_hd.o(STACK) for Stack_Mem
    stm32f10x_adc.o(i.ADC_DeInit) refers to stm32f10x_rcc.o(i.RCC_APB2PeriphResetCmd) for RCC_APB2PeriphResetCmd
    stm32f10x_bkp.o(i.BKP_DeInit) refers to stm32f10x_rcc.o(i.RCC_BackupResetCmd) for RCC_BackupResetCmd
    stm32f10x_can.o(i.CAN_DeInit) refers to stm32f10x_rcc.o(i.RCC_APB1PeriphResetCmd) for RCC_APB1PeriphResetCmd
    stm32f10x_can.o(i.CAN_GetITStatus) refers to stm32f10x_can.o(i.CheckITStatus) for CheckITStatus
    stm32f10x_cec.o(i.CEC_DeInit) refers to stm32f10x_rcc.o(i.RCC_APB1PeriphResetCmd) for RCC_APB1PeriphResetCmd
    stm32f10x_dac.o(i.DAC_DeInit) refers to stm32f10x_rcc.o(i.RCC_APB1PeriphResetCmd) for RCC_APB1PeriphResetCmd
    stm32f10x_flash.o(i.FLASH_EnableWriteProtection) refers to stm32f10x_flash.o(i.FLASH_WaitForLastOperation) for FLASH_WaitForLastOperation
    stm32f10x_flash.o(i.FLASH_EraseAllBank1Pages) refers to stm32f10x_flash.o(i.FLASH_WaitForLastBank1Operation) for FLASH_WaitForLastBank1Operation
    stm32f10x_flash.o(i.FLASH_EraseAllPages) refers to stm32f10x_flash.o(i.FLASH_WaitForLastOperation) for FLASH_WaitForLastOperation
    stm32f10x_flash.o(i.FLASH_EraseOptionBytes) refers to stm32f10x_flash.o(i.FLASH_GetReadOutProtectionStatus) for FLASH_GetReadOutProtectionStatus
    stm32f10x_flash.o(i.FLASH_EraseOptionBytes) refers to stm32f10x_flash.o(i.FLASH_WaitForLastOperation) for FLASH_WaitForLastOperation
    stm32f10x_flash.o(i.FLASH_ErasePage) refers to stm32f10x_flash.o(i.FLASH_WaitForLastOperation) for FLASH_WaitForLastOperation
    stm32f10x_flash.o(i.FLASH_ProgramHalfWord) refers to stm32f10x_flash.o(i.FLASH_WaitForLastOperation) for FLASH_WaitForLastOperation
    stm32f10x_flash.o(i.FLASH_ProgramOptionByteData) refers to stm32f10x_flash.o(i.FLASH_WaitForLastOperation) for FLASH_WaitForLastOperation
    stm32f10x_flash.o(i.FLASH_ProgramWord) refers to stm32f10x_flash.o(i.FLASH_WaitForLastOperation) for FLASH_WaitForLastOperation
    stm32f10x_flash.o(i.FLASH_ReadOutProtection) refers to stm32f10x_flash.o(i.FLASH_WaitForLastOperation) for FLASH_WaitForLastOperation
    stm32f10x_flash.o(i.FLASH_UserOptionByteConfig) refers to stm32f10x_flash.o(i.FLASH_WaitForLastOperation) for FLASH_WaitForLastOperation
    stm32f10x_flash.o(i.FLASH_WaitForLastBank1Operation) refers to stm32f10x_flash.o(i.FLASH_GetBank1Status) for FLASH_GetBank1Status
    stm32f10x_flash.o(i.FLASH_WaitForLastOperation) refers to stm32f10x_flash.o(i.FLASH_GetBank1Status) for FLASH_GetBank1Status
    stm32f10x_gpio.o(i.GPIO_AFIODeInit) refers to stm32f10x_rcc.o(i.RCC_APB2PeriphResetCmd) for RCC_APB2PeriphResetCmd
    stm32f10x_gpio.o(i.GPIO_DeInit) refers to stm32f10x_rcc.o(i.RCC_APB2PeriphResetCmd) for RCC_APB2PeriphResetCmd
    stm32f10x_i2c.o(i.I2C_DeInit) refers to stm32f10x_rcc.o(i.RCC_APB1PeriphResetCmd) for RCC_APB1PeriphResetCmd
    stm32f10x_i2c.o(i.I2C_Init) refers to stm32f10x_rcc.o(i.RCC_GetClocksFreq) for RCC_GetClocksFreq
    stm32f10x_pwr.o(i.PWR_DeInit) refers to stm32f10x_rcc.o(i.RCC_APB1PeriphResetCmd) for RCC_APB1PeriphResetCmd
    stm32f10x_rcc.o(i.RCC_GetClocksFreq) refers to stm32f10x_rcc.o(.data) for .data
    stm32f10x_rcc.o(i.RCC_WaitForHSEStartUp) refers to stm32f10x_rcc.o(i.RCC_GetFlagStatus) for RCC_GetFlagStatus
    stm32f10x_rtc.o(i.RTC_SetAlarm) refers to stm32f10x_rtc.o(i.RTC_EnterConfigMode) for RTC_EnterConfigMode
    stm32f10x_rtc.o(i.RTC_SetAlarm) refers to stm32f10x_rtc.o(i.RTC_ExitConfigMode) for RTC_ExitConfigMode
    stm32f10x_rtc.o(i.RTC_SetCounter) refers to stm32f10x_rtc.o(i.RTC_EnterConfigMode) for RTC_EnterConfigMode
    stm32f10x_rtc.o(i.RTC_SetCounter) refers to stm32f10x_rtc.o(i.RTC_ExitConfigMode) for RTC_ExitConfigMode
    stm32f10x_rtc.o(i.RTC_SetPrescaler) refers to stm32f10x_rtc.o(i.RTC_EnterConfigMode) for RTC_EnterConfigMode
    stm32f10x_rtc.o(i.RTC_SetPrescaler) refers to stm32f10x_rtc.o(i.RTC_ExitConfigMode) for RTC_ExitConfigMode
    stm32f10x_spi.o(i.I2S_Init) refers to stm32f10x_rcc.o(i.RCC_GetClocksFreq) for RCC_GetClocksFreq
    stm32f10x_spi.o(i.SPI_I2S_DeInit) refers to stm32f10x_rcc.o(i.RCC_APB2PeriphResetCmd) for RCC_APB2PeriphResetCmd
    stm32f10x_spi.o(i.SPI_I2S_DeInit) refers to stm32f10x_rcc.o(i.RCC_APB1PeriphResetCmd) for RCC_APB1PeriphResetCmd
    stm32f10x_tim.o(i.TIM_DeInit) refers to stm32f10x_rcc.o(i.RCC_APB1PeriphResetCmd) for RCC_APB1PeriphResetCmd
    stm32f10x_tim.o(i.TIM_DeInit) refers to stm32f10x_rcc.o(i.RCC_APB2PeriphResetCmd) for RCC_APB2PeriphResetCmd
    stm32f10x_tim.o(i.TIM_ETRClockMode1Config) refers to stm32f10x_tim.o(i.TIM_ETRConfig) for TIM_ETRConfig
    stm32f10x_tim.o(i.TIM_ETRClockMode2Config) refers to stm32f10x_tim.o(i.TIM_ETRConfig) for TIM_ETRConfig
    stm32f10x_tim.o(i.TIM_ICInit) refers to stm32f10x_tim.o(i.TI1_Config) for TI1_Config
    stm32f10x_tim.o(i.TIM_ICInit) refers to stm32f10x_tim.o(i.TIM_SetIC1Prescaler) for TIM_SetIC1Prescaler
    stm32f10x_tim.o(i.TIM_ICInit) refers to stm32f10x_tim.o(i.TI2_Config) for TI2_Config
    stm32f10x_tim.o(i.TIM_ICInit) refers to stm32f10x_tim.o(i.TIM_SetIC2Prescaler) for TIM_SetIC2Prescaler
    stm32f10x_tim.o(i.TIM_ICInit) refers to stm32f10x_tim.o(i.TIM_SetIC3Prescaler) for TIM_SetIC3Prescaler
    stm32f10x_tim.o(i.TIM_ICInit) refers to stm32f10x_tim.o(i.TIM_SetIC4Prescaler) for TIM_SetIC4Prescaler
    stm32f10x_tim.o(i.TIM_ITRxExternalClockConfig) refers to stm32f10x_tim.o(i.TIM_SelectInputTrigger) for TIM_SelectInputTrigger
    stm32f10x_tim.o(i.TIM_PWMIConfig) refers to stm32f10x_tim.o(i.TI2_Config) for TI2_Config
    stm32f10x_tim.o(i.TIM_PWMIConfig) refers to stm32f10x_tim.o(i.TIM_SetIC2Prescaler) for TIM_SetIC2Prescaler
    stm32f10x_tim.o(i.TIM_PWMIConfig) refers to stm32f10x_tim.o(i.TI1_Config) for TI1_Config
    stm32f10x_tim.o(i.TIM_PWMIConfig) refers to stm32f10x_tim.o(i.TIM_SetIC1Prescaler) for TIM_SetIC1Prescaler
    stm32f10x_tim.o(i.TIM_TIxExternalClockConfig) refers to stm32f10x_tim.o(i.TI1_Config) for TI1_Config
    stm32f10x_tim.o(i.TIM_TIxExternalClockConfig) refers to stm32f10x_tim.o(i.TIM_SelectInputTrigger) for TIM_SelectInputTrigger
    stm32f10x_tim.o(i.TIM_TIxExternalClockConfig) refers to stm32f10x_tim.o(i.TI2_Config) for TI2_Config
    stm32f10x_usart.o(i.USART_DeInit) refers to stm32f10x_rcc.o(i.RCC_APB2PeriphResetCmd) for RCC_APB2PeriphResetCmd
    stm32f10x_usart.o(i.USART_DeInit) refers to stm32f10x_rcc.o(i.RCC_APB1PeriphResetCmd) for RCC_APB1PeriphResetCmd
    stm32f10x_usart.o(i.USART_Init) refers to stm32f10x_rcc.o(i.RCC_GetClocksFreq) for RCC_GetClocksFreq
    stm32f10x_wwdg.o(i.WWDG_DeInit) refers to stm32f10x_rcc.o(i.RCC_APB1PeriphResetCmd) for RCC_APB1PeriphResetCmd
    iwdg.o(i.IWDG_Config) refers to stm32f10x_iwdg.o(i.IWDG_WriteAccessCmd) for IWDG_WriteAccessCmd
    iwdg.o(i.IWDG_Config) refers to stm32f10x_iwdg.o(i.IWDG_SetPrescaler) for IWDG_SetPrescaler
    iwdg.o(i.IWDG_Config) refers to stm32f10x_iwdg.o(i.IWDG_SetReload) for IWDG_SetReload
    iwdg.o(i.IWDG_Config) refers to stm32f10x_iwdg.o(i.IWDG_ReloadCounter) for IWDG_ReloadCounter
    iwdg.o(i.IWDG_Config) refers to stm32f10x_iwdg.o(i.IWDG_Enable) for IWDG_Enable
    iwdg.o(i.IWDG_Feed) refers to stm32f10x_iwdg.o(i.IWDG_ReloadCounter) for IWDG_ReloadCounter
    pwm.o(i.GENERAL_TIM_Init) refers to stm32f10x_rcc.o(i.RCC_APB2PeriphClockCmd) for RCC_APB2PeriphClockCmd
    pwm.o(i.GENERAL_TIM_Init) refers to stm32f10x_gpio.o(i.GPIO_Init) for GPIO_Init
    pwm.o(i.GENERAL_TIM_Init) refers to pwm.o(i.GENERAL_TIM_Mode_Config) for GENERAL_TIM_Mode_Config
    pwm.o(i.GENERAL_TIM_Mode_Config) refers to stm32f10x_rcc.o(i.RCC_APB1PeriphClockCmd) for RCC_APB1PeriphClockCmd
    pwm.o(i.GENERAL_TIM_Mode_Config) refers to stm32f10x_tim.o(i.TIM_TimeBaseInit) for TIM_TimeBaseInit
    pwm.o(i.GENERAL_TIM_Mode_Config) refers to stm32f10x_tim.o(i.TIM_OC3Init) for TIM_OC3Init
    pwm.o(i.GENERAL_TIM_Mode_Config) refers to stm32f10x_tim.o(i.TIM_OC3PreloadConfig) for TIM_OC3PreloadConfig
    pwm.o(i.GENERAL_TIM_Mode_Config) refers to stm32f10x_tim.o(i.TIM_OC4Init) for TIM_OC4Init
    pwm.o(i.GENERAL_TIM_Mode_Config) refers to stm32f10x_tim.o(i.TIM_OC4PreloadConfig) for TIM_OC4PreloadConfig
    pwm.o(i.GENERAL_TIM_Mode_Config) refers to stm32f10x_tim.o(i.TIM_Cmd) for TIM_Cmd
    systick.o(i.SysTickInit) refers to system_stm32f10x.o(.data) for SystemCoreClock
    usart.o(i.USART_printf) refers to stm32f10x_usart.o(i.USART_SendData) for USART_SendData
    usart.o(i.USART_printf) refers to stm32f10x_usart.o(i.USART_GetFlagStatus) for USART_GetFlagStatus
    usart.o(i.UsartInit) refers to stm32f10x_rcc.o(i.RCC_APB2PeriphClockCmd) for RCC_APB2PeriphClockCmd
    usart.o(i.UsartInit) refers to stm32f10x_rcc.o(i.RCC_APB1PeriphClockCmd) for RCC_APB1PeriphClockCmd
    usart.o(i.UsartInit) refers to stm32f10x_gpio.o(i.GPIO_Init) for GPIO_Init
    usart.o(i.UsartInit) refers to stm32f10x_usart.o(i.USART_Init) for USART_Init
    usart.o(i.UsartInit) refers to stm32f10x_usart.o(i.USART_Cmd) for USART_Cmd
    usart.o(i.UsartInit) refers to stm32f10x_usart.o(i.USART_ClearFlag) for USART_ClearFlag
    usart.o(i.UsartSendByte) refers to stm32f10x_usart.o(i.USART_SendData) for USART_SendData
    usart.o(i.UsartSendByte) refers to stm32f10x_usart.o(i.USART_GetFlagStatus) for USART_GetFlagStatus
    usart.o(i.UsartSendString) refers to usart.o(i.UsartSendByte) for UsartSendByte
    usart.o(i.fputc) refers to stm32f10x_usart.o(i.USART_SendData) for USART_SendData
    usart.o(i.fputc) refers to stm32f10x_usart.o(i.USART_GetFlagStatus) for USART_GetFlagStatus
    usart.o(i.rt_hw_console_getchar) refers to stm32f10x_usart.o(i.USART_GetFlagStatus) for USART_GetFlagStatus
    usart.o(i.rt_hw_console_getchar) refers to stm32f10x_usart.o(i.USART_ReceiveData) for USART_ReceiveData
    usart.o(i.rt_hw_console_getchar) refers to stm32f10x_usart.o(i.USART_ClearFlag) for USART_ClearFlag
    usart.o(i.rt_hw_console_getchar) refers to thread.o(i.rt_thread_mdelay) for rt_thread_mdelay
    usart.o(i.rt_hw_console_output) refers to scheduler.o(i.rt_enter_critical) for rt_enter_critical
    usart.o(i.rt_hw_console_output) refers to stm32f10x_usart.o(i.USART_SendData) for USART_SendData
    usart.o(i.rt_hw_console_output) refers to stm32f10x_usart.o(i.USART_GetFlagStatus) for USART_GetFlagStatus
    usart.o(i.rt_hw_console_output) refers to scheduler.o(i.rt_exit_critical) for rt_exit_critical
    esp8266.o(i.ESP8266_AT_Test) refers to stm32f10x_gpio.o(i.GPIO_SetBits) for GPIO_SetBits
    esp8266.o(i.ESP8266_AT_Test) refers to thread.o(i.rt_thread_mdelay) for rt_thread_mdelay
    esp8266.o(i.ESP8266_AT_Test) refers to esp8266.o(i.ESP8266_Cmd) for ESP8266_Cmd
    esp8266.o(i.ESP8266_AT_Test) refers to esp8266.o(i.ESP8266_Rst) for ESP8266_Rst
    esp8266.o(i.ESP8266_BuildAP) refers to _printf_percent.o(.ARM.Collect$$_printf_percent$$00000000) for _printf_percent
    esp8266.o(i.ESP8266_BuildAP) refers to _printf_d.o(.ARM.Collect$$_printf_percent$$00000009) for _printf_d
    esp8266.o(i.ESP8266_BuildAP) refers to _printf_s.o(.ARM.Collect$$_printf_percent$$00000014) for _printf_s
    esp8266.o(i.ESP8266_BuildAP) refers to _printf_dec.o(.text) for _printf_int_dec
    esp8266.o(i.ESP8266_BuildAP) refers to _printf_str.o(.text) for _printf_str
    esp8266.o(i.ESP8266_BuildAP) refers to noretval__2sprintf.o(.text) for __2sprintf
    esp8266.o(i.ESP8266_BuildAP) refers to esp8266.o(i.ESP8266_Cmd) for ESP8266_Cmd
    esp8266.o(i.ESP8266_Cmd) refers to lcd.o(i.LCD_Clear) for LCD_Clear
    esp8266.o(i.ESP8266_Cmd) refers to usart.o(i.USART_printf) for USART_printf
    esp8266.o(i.ESP8266_Cmd) refers to thread.o(i.rt_thread_mdelay) for rt_thread_mdelay
    esp8266.o(i.ESP8266_Cmd) refers to lcd_basic_application.o(i.ShowString) for ShowString
    esp8266.o(i.ESP8266_Cmd) refers to strstr.o(.text) for strstr
    esp8266.o(i.ESP8266_Cmd) refers to esp8266.o(.data) for .data
    esp8266.o(i.ESP8266_Cmd) refers to esp8266.o(.bss) for .bss
    esp8266.o(i.ESP8266_Cmd) refers to lcd.o(.data) for POINT_COLOR
    esp8266.o(i.ESP8266_Enable_MultipleId) refers to _printf_percent.o(.ARM.Collect$$_printf_percent$$00000000) for _printf_percent
    esp8266.o(i.ESP8266_Enable_MultipleId) refers to _printf_d.o(.ARM.Collect$$_printf_percent$$00000009) for _printf_d
    esp8266.o(i.ESP8266_Enable_MultipleId) refers to _printf_dec.o(.text) for _printf_int_dec
    esp8266.o(i.ESP8266_Enable_MultipleId) refers to noretval__2sprintf.o(.text) for __2sprintf
    esp8266.o(i.ESP8266_Enable_MultipleId) refers to esp8266.o(i.ESP8266_Cmd) for ESP8266_Cmd
    esp8266.o(i.ESP8266_ExitUnvarnishSend) refers to thread.o(i.rt_thread_mdelay) for rt_thread_mdelay
    esp8266.o(i.ESP8266_ExitUnvarnishSend) refers to usart.o(i.USART_printf) for USART_printf
    esp8266.o(i.ESP8266_Get_IdLinkStatus) refers to esp8266.o(i.ESP8266_Cmd) for ESP8266_Cmd
    esp8266.o(i.ESP8266_Get_IdLinkStatus) refers to strstr.o(.text) for strstr
    esp8266.o(i.ESP8266_Get_IdLinkStatus) refers to esp8266.o(.bss) for .bss
    esp8266.o(i.ESP8266_Get_LinkStatus) refers to esp8266.o(i.ESP8266_Cmd) for ESP8266_Cmd
    esp8266.o(i.ESP8266_Get_LinkStatus) refers to strstr.o(.text) for strstr
    esp8266.o(i.ESP8266_Get_LinkStatus) refers to esp8266.o(.bss) for .bss
    esp8266.o(i.ESP8266_Init) refers to stm32f10x_rcc.o(i.RCC_APB2PeriphClockCmd) for RCC_APB2PeriphClockCmd
    esp8266.o(i.ESP8266_Init) refers to stm32f10x_gpio.o(i.GPIO_Init) for GPIO_Init
    esp8266.o(i.ESP8266_Init) refers to esp8266.o(i.ESP8266_USART_Config) for ESP8266_USART_Config
    esp8266.o(i.ESP8266_Init) refers to stm32f10x_gpio.o(i.GPIO_SetBits) for GPIO_SetBits
    esp8266.o(i.ESP8266_Init) refers to stm32f10x_gpio.o(i.GPIO_ResetBits) for GPIO_ResetBits
    esp8266.o(i.ESP8266_Inquire_ApIp) refers to esp8266.o(i.ESP8266_Cmd) for ESP8266_Cmd
    esp8266.o(i.ESP8266_Inquire_ApIp) refers to strstr.o(.text) for strstr
    esp8266.o(i.ESP8266_Inquire_ApIp) refers to esp8266.o(.bss) for .bss
    esp8266.o(i.ESP8266_JoinAP) refers to _printf_percent.o(.ARM.Collect$$_printf_percent$$00000000) for _printf_percent
    esp8266.o(i.ESP8266_JoinAP) refers to _printf_s.o(.ARM.Collect$$_printf_percent$$00000014) for _printf_s
    esp8266.o(i.ESP8266_JoinAP) refers to _printf_str.o(.text) for _printf_str
    esp8266.o(i.ESP8266_JoinAP) refers to noretval__2sprintf.o(.text) for __2sprintf
    esp8266.o(i.ESP8266_JoinAP) refers to esp8266.o(i.ESP8266_Cmd) for ESP8266_Cmd
    esp8266.o(i.ESP8266_Link_Server) refers to _printf_percent.o(.ARM.Collect$$_printf_percent$$00000000) for _printf_percent
    esp8266.o(i.ESP8266_Link_Server) refers to _printf_s.o(.ARM.Collect$$_printf_percent$$00000014) for _printf_s
    esp8266.o(i.ESP8266_Link_Server) refers to _printf_str.o(.text) for _printf_str
    esp8266.o(i.ESP8266_Link_Server) refers to _printf_d.o(.ARM.Collect$$_printf_percent$$00000009) for _printf_d
    esp8266.o(i.ESP8266_Link_Server) refers to _printf_dec.o(.text) for _printf_int_dec
    esp8266.o(i.ESP8266_Link_Server) refers to rt_memclr_w.o(.text) for __aeabi_memclr4
    esp8266.o(i.ESP8266_Link_Server) refers to noretval__2sprintf.o(.text) for __2sprintf
    esp8266.o(i.ESP8266_Link_Server) refers to esp8266.o(i.ESP8266_Cmd) for ESP8266_Cmd
    esp8266.o(i.ESP8266_Net_Mode_Choose) refers to esp8266.o(i.ESP8266_Cmd) for ESP8266_Cmd
    esp8266.o(i.ESP8266_ReceiveString) refers to strstr.o(.text) for strstr
    esp8266.o(i.ESP8266_ReceiveString) refers to esp8266.o(.bss) for .bss
    esp8266.o(i.ESP8266_Rst) refers to stm32f10x_gpio.o(i.GPIO_ResetBits) for GPIO_ResetBits
    esp8266.o(i.ESP8266_Rst) refers to thread.o(i.rt_thread_mdelay) for rt_thread_mdelay
    esp8266.o(i.ESP8266_Rst) refers to stm32f10x_gpio.o(i.GPIO_SetBits) for GPIO_SetBits
    esp8266.o(i.ESP8266_SendString) refers to _printf_percent.o(.ARM.Collect$$_printf_percent$$00000000) for _printf_percent
    esp8266.o(i.ESP8266_SendString) refers to _printf_d.o(.ARM.Collect$$_printf_percent$$00000009) for _printf_d
    esp8266.o(i.ESP8266_SendString) refers to _printf_dec.o(.text) for _printf_int_dec
    esp8266.o(i.ESP8266_SendString) refers to usart.o(i.USART_printf) for USART_printf
    esp8266.o(i.ESP8266_SendString) refers to noretval__2sprintf.o(.text) for __2sprintf
    esp8266.o(i.ESP8266_SendString) refers to esp8266.o(i.ESP8266_Cmd) for ESP8266_Cmd
    esp8266.o(i.ESP8266_StartOrShutServer) refers to _printf_percent.o(.ARM.Collect$$_printf_percent$$00000000) for _printf_percent
    esp8266.o(i.ESP8266_StartOrShutServer) refers to _printf_d.o(.ARM.Collect$$_printf_percent$$00000009) for _printf_d
    esp8266.o(i.ESP8266_StartOrShutServer) refers to _printf_s.o(.ARM.Collect$$_printf_percent$$00000014) for _printf_s
    esp8266.o(i.ESP8266_StartOrShutServer) refers to _printf_dec.o(.text) for _printf_int_dec
    esp8266.o(i.ESP8266_StartOrShutServer) refers to _printf_str.o(.text) for _printf_str
    esp8266.o(i.ESP8266_StartOrShutServer) refers to noretval__2sprintf.o(.text) for __2sprintf
    esp8266.o(i.ESP8266_StartOrShutServer) refers to esp8266.o(i.ESP8266_Cmd) for ESP8266_Cmd
    esp8266.o(i.ESP8266_USART_Config) refers to stm32f10x_rcc.o(i.RCC_APB1PeriphClockCmd) for RCC_APB1PeriphClockCmd
    esp8266.o(i.ESP8266_USART_Config) refers to stm32f10x_rcc.o(i.RCC_APB2PeriphClockCmd) for RCC_APB2PeriphClockCmd
    esp8266.o(i.ESP8266_USART_Config) refers to stm32f10x_gpio.o(i.GPIO_Init) for GPIO_Init
    esp8266.o(i.ESP8266_USART_Config) refers to stm32f10x_usart.o(i.USART_Init) for USART_Init
    esp8266.o(i.ESP8266_USART_Config) refers to stm32f10x_usart.o(i.USART_ITConfig) for USART_ITConfig
    esp8266.o(i.ESP8266_USART_Config) refers to misc.o(i.NVIC_PriorityGroupConfig) for NVIC_PriorityGroupConfig
    esp8266.o(i.ESP8266_USART_Config) refers to misc.o(i.NVIC_Init) for NVIC_Init
    esp8266.o(i.ESP8266_USART_Config) refers to stm32f10x_usart.o(i.USART_Cmd) for USART_Cmd
    esp8266.o(i.ESP8266_UnvarnishSend) refers to esp8266.o(i.ESP8266_Cmd) for ESP8266_Cmd
    esp8266.o(i.USART3_IRQHandler) refers to stm32f10x_usart.o(i.USART_GetITStatus) for USART_GetITStatus
    esp8266.o(i.USART3_IRQHandler) refers to stm32f10x_usart.o(i.USART_ReceiveData) for USART_ReceiveData
    esp8266.o(i.USART3_IRQHandler) refers to esp8266.o(.bss) for .bss
    lcd.o(i.LCD_Clear) refers to lcd.o(i.LCD_SetWindows) for LCD_SetWindows
    lcd.o(i.LCD_Clear) refers to thread.o(i.rt_thread_mdelay) for rt_thread_mdelay
    lcd.o(i.LCD_Clear) refers to lcd.o(.bss) for .bss
    lcd.o(i.LCD_GPIOInit) refers to stm32f10x_rcc.o(i.RCC_AHBPeriphClockCmd) for RCC_AHBPeriphClockCmd
    lcd.o(i.LCD_GPIOInit) refers to stm32f10x_rcc.o(i.RCC_APB2PeriphClockCmd) for RCC_APB2PeriphClockCmd
    lcd.o(i.LCD_GPIOInit) refers to stm32f10x_gpio.o(i.GPIO_Init) for GPIO_Init
    lcd.o(i.LCD_GPIOInit) refers to stm32f10x_fsmc.o(i.FSMC_NORSRAMInit) for FSMC_NORSRAMInit
    lcd.o(i.LCD_GPIOInit) refers to stm32f10x_fsmc.o(i.FSMC_NORSRAMCmd) for FSMC_NORSRAMCmd
    lcd.o(i.LCD_Init) refers to lcd.o(i.LCD_GPIOInit) for LCD_GPIOInit
    lcd.o(i.LCD_Init) refers to lcd.o(i.LCD_RESET) for LCD_RESET
    lcd.o(i.LCD_Init) refers to thread.o(i.rt_thread_mdelay) for rt_thread_mdelay
    lcd.o(i.LCD_Init) refers to lcd.o(i.LCD_SetParam) for LCD_SetParam
    lcd.o(i.LCD_Init) refers to lcd.o(i.LCD_Clear) for LCD_Clear
    lcd.o(i.LCD_Init) refers to lcd.o(.data) for .data
    lcd.o(i.LCD_RESET) refers to thread.o(i.rt_thread_mdelay) for rt_thread_mdelay
    lcd.o(i.LCD_SetCursor) refers to lcd.o(i.LCD_SetWindows) for LCD_SetWindows
    lcd.o(i.LCD_SetParam) refers to lcd.o(i.LCD_WriteReg) for LCD_WriteReg
    lcd.o(i.LCD_SetParam) refers to lcd.o(.bss) for .bss
    lcd.o(i.LCD_SetWindows) refers to lcd.o(i.LCD_WriteRAM_Prepare) for LCD_WriteRAM_Prepare
    lcd.o(i.LCD_SetWindows) refers to lcd.o(.bss) for .bss
    lcd.o(i.LCD_WriteRAM_Prepare) refers to lcd.o(.bss) for .bss
    lcd.o(.rti_fn.6) refers to lcd.o(i.LCD_Init) for LCD_Init
    ov7725_entrance.o(i.EXTI9_5_IRQHandler) refers to stm32f10x_exti.o(i.EXTI_GetITStatus) for EXTI_GetITStatus
    ov7725_entrance.o(i.EXTI9_5_IRQHandler) refers to ipc.o(i.rt_sem_release) for rt_sem_release
    ov7725_entrance.o(i.EXTI9_5_IRQHandler) refers to stm32f10x_exti.o(i.EXTI_ClearITPendingBit) for EXTI_ClearITPendingBit
    ov7725_entrance.o(i.EXTI9_5_IRQHandler) refers to ov7725_entrance.o(.data) for .data
    ov7725_entrance.o(i.EXTI9_5_IRQHandler) refers to main.o(.data) for entr_recv_sem
    ov7725_entrance.o(i.OV7725_FIFO_GPIO_Config) refers to stm32f10x_rcc.o(i.RCC_APB2PeriphClockCmd) for RCC_APB2PeriphClockCmd
    ov7725_entrance.o(i.OV7725_FIFO_GPIO_Config) refers to stm32f10x_gpio.o(i.GPIO_Init) for GPIO_Init
    ov7725_entrance.o(i.OV7725_VSYNC_GPIO_Config) refers to stm32f10x_rcc.o(i.RCC_APB2PeriphClockCmd) for RCC_APB2PeriphClockCmd
    ov7725_entrance.o(i.OV7725_VSYNC_GPIO_Config) refers to stm32f10x_gpio.o(i.GPIO_Init) for GPIO_Init
    ov7725_entrance.o(i.OV7725_VSYNC_GPIO_Config) refers to stm32f10x_gpio.o(i.GPIO_EXTILineConfig) for GPIO_EXTILineConfig
    ov7725_entrance.o(i.OV7725_VSYNC_GPIO_Config) refers to stm32f10x_exti.o(i.EXTI_Init) for EXTI_Init
    ov7725_entrance.o(i.OV7725_VSYNC_GPIO_Config) refers to stm32f10x_exti.o(i.EXTI_GenerateSWInterrupt) for EXTI_GenerateSWInterrupt
    ov7725_entrance.o(i.OV7725_VSYNC_GPIO_Config) refers to misc.o(i.NVIC_PriorityGroupConfig) for NVIC_PriorityGroupConfig
    ov7725_entrance.o(i.OV7725_VSYNC_GPIO_Config) refers to misc.o(i.NVIC_Init) for NVIC_Init
    ov7725_entrance.o(i.OV7725_entr_Brightness) refers to ov7725sccb_entrance.o(i.OV7725_SCCB_WriteByte) for OV7725_SCCB_WriteByte
    ov7725_entrance.o(i.OV7725_entr_Color_Saturation) refers to ov7725sccb_entrance.o(i.OV7725_SCCB_WriteByte) for OV7725_SCCB_WriteByte
    ov7725_entrance.o(i.OV7725_entr_Contrast) refers to ov7725sccb_entrance.o(i.OV7725_SCCB_WriteByte) for OV7725_SCCB_WriteByte
    ov7725_entrance.o(i.OV7725_entr_GPIO_Config) refers to ov7725sccb_entrance.o(i.OV7725_SCCB_GPIO_Config) for OV7725_SCCB_GPIO_Config
    ov7725_entrance.o(i.OV7725_entr_GPIO_Config) refers to ov7725_entrance.o(i.OV7725_FIFO_GPIO_Config) for OV7725_FIFO_GPIO_Config
    ov7725_entrance.o(i.OV7725_entr_GPIO_Config) refers to ov7725_entrance.o(i.OV7725_VSYNC_GPIO_Config) for OV7725_VSYNC_GPIO_Config
    ov7725_entrance.o(i.OV7725_entr_Init) refers to ov7725sccb_entrance.o(i.OV7725_SCCB_WriteByte) for OV7725_SCCB_WriteByte
    ov7725_entrance.o(i.OV7725_entr_Init) refers to ov7725sccb_entrance.o(i.OV7725_SCCB_ReadByte) for OV7725_SCCB_ReadByte
    ov7725_entrance.o(i.OV7725_entr_Init) refers to ov7725_entrance.o(.data) for .data
    ov7725_entrance.o(i.OV7725_entr_Light_Mode) refers to ov7725sccb_entrance.o(i.OV7725_SCCB_WriteByte) for OV7725_SCCB_WriteByte
    ov7725_entrance.o(i.OV7725_entr_Special_Effect) refers to ov7725sccb_entrance.o(i.OV7725_SCCB_WriteByte) for OV7725_SCCB_WriteByte
    ov7725_entrance.o(i.OV7725_entr_Window_Set) refers to ov7725sccb_entrance.o(i.OV7725_SCCB_WriteByte) for OV7725_SCCB_WriteByte
    ov7725_entrance.o(i.OV7725_entr_Window_Set) refers to ov7725sccb_entrance.o(i.OV7725_SCCB_ReadByte) for OV7725_SCCB_ReadByte
    ov7725_exit.o(i.EXTI15_10_IRQHandler) refers to stm32f10x_exti.o(i.EXTI_GetITStatus) for EXTI_GetITStatus
    ov7725_exit.o(i.EXTI15_10_IRQHandler) refers to ipc.o(i.rt_sem_release) for rt_sem_release
    ov7725_exit.o(i.EXTI15_10_IRQHandler) refers to stm32f10x_exti.o(i.EXTI_ClearITPendingBit) for EXTI_ClearITPendingBit
    ov7725_exit.o(i.EXTI15_10_IRQHandler) refers to ov7725_exit.o(.data) for .data
    ov7725_exit.o(i.EXTI15_10_IRQHandler) refers to main.o(.data) for exit_recv_sem
    ov7725_exit.o(i.OV7725_exit_Brightness) refers to ov7725sccb_exit.o(i.OV7725_exit_SCCB_WriteByte) for OV7725_exit_SCCB_WriteByte
    ov7725_exit.o(i.OV7725_exit_Color_Saturation) refers to ov7725sccb_exit.o(i.OV7725_exit_SCCB_WriteByte) for OV7725_exit_SCCB_WriteByte
    ov7725_exit.o(i.OV7725_exit_Contrast) refers to ov7725sccb_exit.o(i.OV7725_exit_SCCB_WriteByte) for OV7725_exit_SCCB_WriteByte
    ov7725_exit.o(i.OV7725_exit_FIFO_GPIO_Config) refers to stm32f10x_rcc.o(i.RCC_APB2PeriphClockCmd) for RCC_APB2PeriphClockCmd
    ov7725_exit.o(i.OV7725_exit_FIFO_GPIO_Config) refers to stm32f10x_gpio.o(i.GPIO_Init) for GPIO_Init
    ov7725_exit.o(i.OV7725_exit_GPIO_Config) refers to ov7725sccb_exit.o(i.OV7725_exit_SCCB_GPIO_Config) for OV7725_exit_SCCB_GPIO_Config
    ov7725_exit.o(i.OV7725_exit_GPIO_Config) refers to ov7725_exit.o(i.OV7725_exit_FIFO_GPIO_Config) for OV7725_exit_FIFO_GPIO_Config
    ov7725_exit.o(i.OV7725_exit_GPIO_Config) refers to ov7725_exit.o(i.OV7725_exit_VSYNC_GPIO_Config) for OV7725_exit_VSYNC_GPIO_Config
    ov7725_exit.o(i.OV7725_exit_Init) refers to ov7725sccb_exit.o(i.OV7725_exit_SCCB_WriteByte) for OV7725_exit_SCCB_WriteByte
    ov7725_exit.o(i.OV7725_exit_Init) refers to ov7725sccb_exit.o(i.OV7725_exit_SCCB_ReadByte) for OV7725_exit_SCCB_ReadByte
    ov7725_exit.o(i.OV7725_exit_Init) refers to ov7725_exit.o(.data) for .data
    ov7725_exit.o(i.OV7725_exit_Light_Mode) refers to ov7725sccb_exit.o(i.OV7725_exit_SCCB_WriteByte) for OV7725_exit_SCCB_WriteByte
    ov7725_exit.o(i.OV7725_exit_Special_Effect) refers to ov7725sccb_exit.o(i.OV7725_exit_SCCB_WriteByte) for OV7725_exit_SCCB_WriteByte
    ov7725_exit.o(i.OV7725_exit_VSYNC_GPIO_Config) refers to stm32f10x_rcc.o(i.RCC_APB2PeriphClockCmd) for RCC_APB2PeriphClockCmd
    ov7725_exit.o(i.OV7725_exit_VSYNC_GPIO_Config) refers to stm32f10x_gpio.o(i.GPIO_Init) for GPIO_Init
    ov7725_exit.o(i.OV7725_exit_VSYNC_GPIO_Config) refers to stm32f10x_gpio.o(i.GPIO_EXTILineConfig) for GPIO_EXTILineConfig
    ov7725_exit.o(i.OV7725_exit_VSYNC_GPIO_Config) refers to stm32f10x_exti.o(i.EXTI_Init) for EXTI_Init
    ov7725_exit.o(i.OV7725_exit_VSYNC_GPIO_Config) refers to stm32f10x_exti.o(i.EXTI_GenerateSWInterrupt) for EXTI_GenerateSWInterrupt
    ov7725_exit.o(i.OV7725_exit_VSYNC_GPIO_Config) refers to misc.o(i.NVIC_PriorityGroupConfig) for NVIC_PriorityGroupConfig
    ov7725_exit.o(i.OV7725_exit_VSYNC_GPIO_Config) refers to misc.o(i.NVIC_Init) for NVIC_Init
    ov7725_exit.o(i.OV7725_exit_Window_Set) refers to ov7725sccb_exit.o(i.OV7725_exit_SCCB_WriteByte) for OV7725_exit_SCCB_WriteByte
    ov7725_exit.o(i.OV7725_exit_Window_Set) refers to ov7725sccb_exit.o(i.OV7725_exit_SCCB_ReadByte) for OV7725_exit_SCCB_ReadByte
    ov7725_exit.o(i.OV7725_exit_Window_VGA_Set) refers to ov7725sccb_exit.o(i.OV7725_exit_SCCB_WriteByte) for OV7725_exit_SCCB_WriteByte
    ov7725_exit.o(i.OV7725_exit_Window_VGA_Set) refers to ov7725sccb_exit.o(i.OV7725_exit_SCCB_ReadByte) for OV7725_exit_SCCB_ReadByte
    ov7725sccb_entrance.o(i.OV7725_SCCB_GPIO_Config) refers to stm32f10x_rcc.o(i.RCC_APB2PeriphClockCmd) for RCC_APB2PeriphClockCmd
    ov7725sccb_entrance.o(i.OV7725_SCCB_GPIO_Config) refers to stm32f10x_gpio.o(i.GPIO_Init) for GPIO_Init
    ov7725sccb_entrance.o(i.OV7725_SCCB_ReadByte) refers to ov7725sccb_entrance.o(i.OV7725_SCCB_Start) for OV7725_SCCB_Start
    ov7725sccb_entrance.o(i.OV7725_SCCB_ReadByte) refers to ov7725sccb_entrance.o(i.OV7725_SCCB_SendByte) for OV7725_SCCB_SendByte
    ov7725sccb_entrance.o(i.OV7725_SCCB_ReadByte) refers to ov7725sccb_entrance.o(i.OV7725_SCCB_WaitAck) for OV7725_SCCB_WaitAck
    ov7725sccb_entrance.o(i.OV7725_SCCB_ReadByte) refers to ov7725sccb_entrance.o(i.OV7725_SCCB_Stop) for OV7725_SCCB_Stop
    ov7725sccb_entrance.o(i.OV7725_SCCB_ReadByte) refers to stm32f10x_gpio.o(i.GPIO_SetBits) for GPIO_SetBits
    ov7725sccb_entrance.o(i.OV7725_SCCB_ReadByte) refers to stm32f10x_gpio.o(i.GPIO_ResetBits) for GPIO_ResetBits
    ov7725sccb_entrance.o(i.OV7725_SCCB_ReadByte) refers to ov7725sccb_entrance.o(i.OV7725_SCCB_delay) for OV7725_SCCB_delay
    ov7725sccb_entrance.o(i.OV7725_SCCB_ReadByte) refers to stm32f10x_gpio.o(i.GPIO_ReadInputDataBit) for GPIO_ReadInputDataBit
    ov7725sccb_entrance.o(i.OV7725_SCCB_SendByte) refers to stm32f10x_gpio.o(i.GPIO_ResetBits) for GPIO_ResetBits
    ov7725sccb_entrance.o(i.OV7725_SCCB_SendByte) refers to ov7725sccb_entrance.o(i.OV7725_SCCB_delay) for OV7725_SCCB_delay
    ov7725sccb_entrance.o(i.OV7725_SCCB_SendByte) refers to stm32f10x_gpio.o(i.GPIO_SetBits) for GPIO_SetBits
    ov7725sccb_entrance.o(i.OV7725_SCCB_Start) refers to stm32f10x_gpio.o(i.GPIO_SetBits) for GPIO_SetBits
    ov7725sccb_entrance.o(i.OV7725_SCCB_Start) refers to ov7725sccb_entrance.o(i.OV7725_SCCB_delay) for OV7725_SCCB_delay
    ov7725sccb_entrance.o(i.OV7725_SCCB_Start) refers to stm32f10x_gpio.o(i.GPIO_ReadInputDataBit) for GPIO_ReadInputDataBit
    ov7725sccb_entrance.o(i.OV7725_SCCB_Start) refers to stm32f10x_gpio.o(i.GPIO_ResetBits) for GPIO_ResetBits
    ov7725sccb_entrance.o(i.OV7725_SCCB_Stop) refers to stm32f10x_gpio.o(i.GPIO_ResetBits) for GPIO_ResetBits
    ov7725sccb_entrance.o(i.OV7725_SCCB_Stop) refers to ov7725sccb_entrance.o(i.OV7725_SCCB_delay) for OV7725_SCCB_delay
    ov7725sccb_entrance.o(i.OV7725_SCCB_Stop) refers to stm32f10x_gpio.o(i.GPIO_SetBits) for GPIO_SetBits
    ov7725sccb_entrance.o(i.OV7725_SCCB_WaitAck) refers to stm32f10x_gpio.o(i.GPIO_ResetBits) for GPIO_ResetBits
    ov7725sccb_entrance.o(i.OV7725_SCCB_WaitAck) refers to ov7725sccb_entrance.o(i.OV7725_SCCB_delay) for OV7725_SCCB_delay
    ov7725sccb_entrance.o(i.OV7725_SCCB_WaitAck) refers to stm32f10x_gpio.o(i.GPIO_SetBits) for GPIO_SetBits
    ov7725sccb_entrance.o(i.OV7725_SCCB_WaitAck) refers to stm32f10x_gpio.o(i.GPIO_ReadInputDataBit) for GPIO_ReadInputDataBit
    ov7725sccb_entrance.o(i.OV7725_SCCB_WriteByte) refers to ov7725sccb_entrance.o(i.OV7725_SCCB_Start) for OV7725_SCCB_Start
    ov7725sccb_entrance.o(i.OV7725_SCCB_WriteByte) refers to ov7725sccb_entrance.o(i.OV7725_SCCB_SendByte) for OV7725_SCCB_SendByte
    ov7725sccb_entrance.o(i.OV7725_SCCB_WriteByte) refers to ov7725sccb_entrance.o(i.OV7725_SCCB_WaitAck) for OV7725_SCCB_WaitAck
    ov7725sccb_entrance.o(i.OV7725_SCCB_WriteByte) refers to ov7725sccb_entrance.o(i.OV7725_SCCB_Stop) for OV7725_SCCB_Stop
    ov7725sccb_exit.o(i.OV7725_exit_SCCB_GPIO_Config) refers to stm32f10x_rcc.o(i.RCC_APB2PeriphClockCmd) for RCC_APB2PeriphClockCmd
    ov7725sccb_exit.o(i.OV7725_exit_SCCB_GPIO_Config) refers to stm32f10x_gpio.o(i.GPIO_Init) for GPIO_Init
    ov7725sccb_exit.o(i.OV7725_exit_SCCB_ReadByte) refers to ov7725sccb_exit.o(i.OV7725_exit_SCCB_Start) for OV7725_exit_SCCB_Start
    ov7725sccb_exit.o(i.OV7725_exit_SCCB_ReadByte) refers to ov7725sccb_exit.o(i.OV7725_exit_SCCB_SendByte) for OV7725_exit_SCCB_SendByte
    ov7725sccb_exit.o(i.OV7725_exit_SCCB_ReadByte) refers to ov7725sccb_exit.o(i.OV7725_exit_SCCB_WaitAck) for OV7725_exit_SCCB_WaitAck
    ov7725sccb_exit.o(i.OV7725_exit_SCCB_ReadByte) refers to ov7725sccb_exit.o(i.OV7725_exit_SCCB_Stop) for OV7725_exit_SCCB_Stop
    ov7725sccb_exit.o(i.OV7725_exit_SCCB_ReadByte) refers to stm32f10x_gpio.o(i.GPIO_SetBits) for GPIO_SetBits
    ov7725sccb_exit.o(i.OV7725_exit_SCCB_ReadByte) refers to stm32f10x_gpio.o(i.GPIO_ResetBits) for GPIO_ResetBits
    ov7725sccb_exit.o(i.OV7725_exit_SCCB_ReadByte) refers to ov7725sccb_exit.o(i.OV7725_exit_SCCB_delay) for OV7725_exit_SCCB_delay
    ov7725sccb_exit.o(i.OV7725_exit_SCCB_ReadByte) refers to stm32f10x_gpio.o(i.GPIO_ReadInputDataBit) for GPIO_ReadInputDataBit
    ov7725sccb_exit.o(i.OV7725_exit_SCCB_SendByte) refers to stm32f10x_gpio.o(i.GPIO_ResetBits) for GPIO_ResetBits
    ov7725sccb_exit.o(i.OV7725_exit_SCCB_SendByte) refers to ov7725sccb_exit.o(i.OV7725_exit_SCCB_delay) for OV7725_exit_SCCB_delay
    ov7725sccb_exit.o(i.OV7725_exit_SCCB_SendByte) refers to stm32f10x_gpio.o(i.GPIO_SetBits) for GPIO_SetBits
    ov7725sccb_exit.o(i.OV7725_exit_SCCB_Start) refers to stm32f10x_gpio.o(i.GPIO_SetBits) for GPIO_SetBits
    ov7725sccb_exit.o(i.OV7725_exit_SCCB_Start) refers to ov7725sccb_exit.o(i.OV7725_exit_SCCB_delay) for OV7725_exit_SCCB_delay
    ov7725sccb_exit.o(i.OV7725_exit_SCCB_Start) refers to stm32f10x_gpio.o(i.GPIO_ReadInputDataBit) for GPIO_ReadInputDataBit
    ov7725sccb_exit.o(i.OV7725_exit_SCCB_Start) refers to stm32f10x_gpio.o(i.GPIO_ResetBits) for GPIO_ResetBits
    ov7725sccb_exit.o(i.OV7725_exit_SCCB_Stop) refers to stm32f10x_gpio.o(i.GPIO_ResetBits) for GPIO_ResetBits
    ov7725sccb_exit.o(i.OV7725_exit_SCCB_Stop) refers to ov7725sccb_exit.o(i.OV7725_exit_SCCB_delay) for OV7725_exit_SCCB_delay
    ov7725sccb_exit.o(i.OV7725_exit_SCCB_Stop) refers to stm32f10x_gpio.o(i.GPIO_SetBits) for GPIO_SetBits
    ov7725sccb_exit.o(i.OV7725_exit_SCCB_WaitAck) refers to stm32f10x_gpio.o(i.GPIO_ResetBits) for GPIO_ResetBits
    ov7725sccb_exit.o(i.OV7725_exit_SCCB_WaitAck) refers to ov7725sccb_exit.o(i.OV7725_exit_SCCB_delay) for OV7725_exit_SCCB_delay
    ov7725sccb_exit.o(i.OV7725_exit_SCCB_WaitAck) refers to stm32f10x_gpio.o(i.GPIO_SetBits) for GPIO_SetBits
    ov7725sccb_exit.o(i.OV7725_exit_SCCB_WaitAck) refers to stm32f10x_gpio.o(i.GPIO_ReadInputDataBit) for GPIO_ReadInputDataBit
    ov7725sccb_exit.o(i.OV7725_exit_SCCB_WriteByte) refers to ov7725sccb_exit.o(i.OV7725_exit_SCCB_Start) for OV7725_exit_SCCB_Start
    ov7725sccb_exit.o(i.OV7725_exit_SCCB_WriteByte) refers to ov7725sccb_exit.o(i.OV7725_exit_SCCB_SendByte) for OV7725_exit_SCCB_SendByte
    ov7725sccb_exit.o(i.OV7725_exit_SCCB_WriteByte) refers to ov7725sccb_exit.o(i.OV7725_exit_SCCB_WaitAck) for OV7725_exit_SCCB_WaitAck
    ov7725sccb_exit.o(i.OV7725_exit_SCCB_WriteByte) refers to ov7725sccb_exit.o(i.OV7725_exit_SCCB_Stop) for OV7725_exit_SCCB_Stop
    infrared_barrier.o(i.Infrared_Init) refers to stm32f10x_rcc.o(i.RCC_APB2PeriphClockCmd) for RCC_APB2PeriphClockCmd
    infrared_barrier.o(i.Infrared_Init) refers to stm32f10x_gpio.o(i.GPIO_Init) for GPIO_Init
    smoke_sensor.o(i.Smoke_Init) refers to stm32f10x_rcc.o(i.RCC_APB2PeriphClockCmd) for RCC_APB2PeriphClockCmd
    smoke_sensor.o(i.Smoke_Init) refers to stm32f10x_gpio.o(i.GPIO_Init) for GPIO_Init
    clock.o(i.rt_tick_get) refers to clock.o(.data) for .data
    clock.o(i.rt_tick_increase) refers to thread.o(i.rt_thread_self) for rt_thread_self
    clock.o(i.rt_tick_increase) refers to thread.o(i.rt_thread_yield) for rt_thread_yield
    clock.o(i.rt_tick_increase) refers to timer.o(i.rt_timer_check) for rt_timer_check
    clock.o(i.rt_tick_increase) refers to clock.o(.data) for .data
    clock.o(i.rt_tick_set) refers to context_rvds.o(.text) for rt_hw_interrupt_disable
    clock.o(i.rt_tick_set) refers to clock.o(.data) for .data
    components.o(i.$Sub$$main) refers to components.o(i.rtthread_startup) for rtthread_startup
    components.o(i.main_thread_entry) refers to components.o(i.rt_components_init) for rt_components_init
    components.o(i.main_thread_entry) refers to main.o(i.main) for $Super$$main
    components.o(i.rt_application_init) refers to thread.o(i.rt_thread_create) for rt_thread_create
    components.o(i.rt_application_init) refers to thread.o(i.rt_thread_startup) for rt_thread_startup
    components.o(i.rt_application_init) refers to components.o(i.main_thread_entry) for main_thread_entry
    components.o(i.rt_components_board_init) refers to components.o(.rti_fn.0.end) for .rti_fn.0.end
    components.o(i.rt_components_board_init) refers to components.o(.rti_fn.1.end) for .rti_fn.1.end
    components.o(i.rt_components_init) refers to components.o(.rti_fn.1.end) for .rti_fn.1.end
    components.o(i.rt_components_init) refers to components.o(.rti_fn.6.end) for .rti_fn.6.end
    components.o(i.rtthread_startup) refers to context_rvds.o(.text) for rt_hw_interrupt_disable
    components.o(i.rtthread_startup) refers to board.o(i.rt_hw_board_init) for rt_hw_board_init
    components.o(i.rtthread_startup) refers to kservice.o(i.rt_show_version) for rt_show_version
    components.o(i.rtthread_startup) refers to timer.o(i.rt_system_timer_init) for rt_system_timer_init
    components.o(i.rtthread_startup) refers to scheduler.o(i.rt_system_scheduler_init) for rt_system_scheduler_init
    components.o(i.rtthread_startup) refers to components.o(i.rt_application_init) for rt_application_init
    components.o(i.rtthread_startup) refers to timer.o(i.rt_system_timer_thread_init) for rt_system_timer_thread_init
    components.o(i.rtthread_startup) refers to idle.o(i.rt_thread_idle_init) for rt_thread_idle_init
    components.o(i.rtthread_startup) refers to scheduler.o(i.rt_system_scheduler_start) for rt_system_scheduler_start
    components.o(.rti_fn.0) refers to components.o(i.rti_start) for rti_start
    components.o(.rti_fn.0.end) refers to components.o(i.rti_board_start) for rti_board_start
    components.o(.rti_fn.1.end) refers to components.o(i.rti_board_end) for rti_board_end
    components.o(.rti_fn.6.end) refers to components.o(i.rti_end) for rti_end
    idle.o(i._has_defunct_thread) refers to scheduler.o(.data) for rt_thread_defunct
    idle.o(i.rt_thread_idle_delhook) refers to context_rvds.o(.text) for rt_hw_interrupt_disable
    idle.o(i.rt_thread_idle_delhook) refers to idle.o(.bss) for .bss
    idle.o(i.rt_thread_idle_entry) refers to idle.o(i.rt_thread_idle_excute) for rt_thread_idle_excute
    idle.o(i.rt_thread_idle_entry) refers to idle.o(.bss) for .bss
    idle.o(i.rt_thread_idle_excute) refers to context_rvds.o(.text) for rt_hw_interrupt_disable
    idle.o(i.rt_thread_idle_excute) refers to idle.o(i._has_defunct_thread) for _has_defunct_thread
    idle.o(i.rt_thread_idle_excute) refers to scheduler.o(i.rt_enter_critical) for rt_enter_critical
    idle.o(i.rt_thread_idle_excute) refers to object.o(i.rt_object_is_systemobject) for rt_object_is_systemobject
    idle.o(i.rt_thread_idle_excute) refers to scheduler.o(i.rt_exit_critical) for rt_exit_critical
    idle.o(i.rt_thread_idle_excute) refers to mem.o(i.rt_free) for rt_free
    idle.o(i.rt_thread_idle_excute) refers to object.o(i.rt_object_delete) for rt_object_delete
    idle.o(i.rt_thread_idle_excute) refers to object.o(i.rt_object_detach) for rt_object_detach
    idle.o(i.rt_thread_idle_excute) refers to scheduler.o(.data) for rt_thread_defunct
    idle.o(i.rt_thread_idle_gethandler) refers to idle.o(.bss) for .bss
    idle.o(i.rt_thread_idle_init) refers to thread.o(i.rt_thread_init) for rt_thread_init
    idle.o(i.rt_thread_idle_init) refers to thread.o(i.rt_thread_startup) for rt_thread_startup
    idle.o(i.rt_thread_idle_init) refers to idle.o(.bss) for .bss
    idle.o(i.rt_thread_idle_init) refers to idle.o(i.rt_thread_idle_entry) for rt_thread_idle_entry
    idle.o(i.rt_thread_idle_sethook) refers to context_rvds.o(.text) for rt_hw_interrupt_disable
    idle.o(i.rt_thread_idle_sethook) refers to idle.o(.bss) for .bss
    ipc.o(i.rt_event_control) refers to context_rvds.o(.text) for rt_hw_interrupt_disable
    ipc.o(i.rt_event_control) refers to ipc.o(i.rt_ipc_list_resume_all) for rt_ipc_list_resume_all
    ipc.o(i.rt_event_control) refers to scheduler.o(i.rt_schedule) for rt_schedule
    ipc.o(i.rt_event_create) refers to object.o(i.rt_object_allocate) for rt_object_allocate
    ipc.o(i.rt_event_delete) refers to ipc.o(i.rt_ipc_list_resume_all) for rt_ipc_list_resume_all
    ipc.o(i.rt_event_delete) refers to object.o(i.rt_object_delete) for rt_object_delete
    ipc.o(i.rt_event_detach) refers to ipc.o(i.rt_ipc_list_resume_all) for rt_ipc_list_resume_all
    ipc.o(i.rt_event_detach) refers to object.o(i.rt_object_detach) for rt_object_detach
    ipc.o(i.rt_event_init) refers to object.o(i.rt_object_init) for rt_object_init
    ipc.o(i.rt_event_recv) refers to thread.o(i.rt_thread_self) for rt_thread_self
    ipc.o(i.rt_event_recv) refers to context_rvds.o(.text) for rt_hw_interrupt_disable
    ipc.o(i.rt_event_recv) refers to ipc.o(i.rt_ipc_list_suspend) for rt_ipc_list_suspend
    ipc.o(i.rt_event_recv) refers to timer.o(i.rt_timer_control) for rt_timer_control
    ipc.o(i.rt_event_recv) refers to timer.o(i.rt_timer_start) for rt_timer_start
    ipc.o(i.rt_event_recv) refers to scheduler.o(i.rt_schedule) for rt_schedule
    ipc.o(i.rt_event_send) refers to context_rvds.o(.text) for rt_hw_interrupt_disable
    ipc.o(i.rt_event_send) refers to ipc.o(i.rt_list_isempty) for rt_list_isempty
    ipc.o(i.rt_event_send) refers to thread.o(i.rt_thread_resume) for rt_thread_resume
    ipc.o(i.rt_event_send) refers to scheduler.o(i.rt_schedule) for rt_schedule
    ipc.o(i.rt_ipc_list_resume) refers to thread.o(i.rt_thread_resume) for rt_thread_resume
    ipc.o(i.rt_ipc_list_resume_all) refers to context_rvds.o(.text) for rt_hw_interrupt_disable
    ipc.o(i.rt_ipc_list_resume_all) refers to thread.o(i.rt_thread_resume) for rt_thread_resume
    ipc.o(i.rt_ipc_list_resume_all) refers to ipc.o(i.rt_list_isempty) for rt_list_isempty
    ipc.o(i.rt_ipc_list_suspend) refers to thread.o(i.rt_thread_suspend) for rt_thread_suspend
    ipc.o(i.rt_ipc_list_suspend) refers to ipc.o(i.rt_list_insert_before) for rt_list_insert_before
    ipc.o(i.rt_mb_control) refers to context_rvds.o(.text) for rt_hw_interrupt_disable
    ipc.o(i.rt_mb_control) refers to ipc.o(i.rt_ipc_list_resume_all) for rt_ipc_list_resume_all
    ipc.o(i.rt_mb_control) refers to scheduler.o(i.rt_schedule) for rt_schedule
    ipc.o(i.rt_mb_create) refers to object.o(i.rt_object_allocate) for rt_object_allocate
    ipc.o(i.rt_mb_create) refers to mem.o(i.rt_malloc) for rt_malloc
    ipc.o(i.rt_mb_create) refers to object.o(i.rt_object_delete) for rt_object_delete
    ipc.o(i.rt_mb_delete) refers to ipc.o(i.rt_ipc_list_resume_all) for rt_ipc_list_resume_all
    ipc.o(i.rt_mb_delete) refers to mem.o(i.rt_free) for rt_free
    ipc.o(i.rt_mb_delete) refers to object.o(i.rt_object_delete) for rt_object_delete
    ipc.o(i.rt_mb_detach) refers to ipc.o(i.rt_ipc_list_resume_all) for rt_ipc_list_resume_all
    ipc.o(i.rt_mb_detach) refers to object.o(i.rt_object_detach) for rt_object_detach
    ipc.o(i.rt_mb_init) refers to object.o(i.rt_object_init) for rt_object_init
    ipc.o(i.rt_mb_recv) refers to thread.o(i.rt_thread_self) for rt_thread_self
    ipc.o(i.rt_mb_recv) refers to context_rvds.o(.text) for rt_hw_interrupt_disable
    ipc.o(i.rt_mb_recv) refers to ipc.o(i.rt_ipc_list_suspend) for rt_ipc_list_suspend
    ipc.o(i.rt_mb_recv) refers to clock.o(i.rt_tick_get) for rt_tick_get
    ipc.o(i.rt_mb_recv) refers to timer.o(i.rt_timer_control) for rt_timer_control
    ipc.o(i.rt_mb_recv) refers to timer.o(i.rt_timer_start) for rt_timer_start
    ipc.o(i.rt_mb_recv) refers to scheduler.o(i.rt_schedule) for rt_schedule
    ipc.o(i.rt_mb_recv) refers to ipc.o(i.rt_list_isempty) for rt_list_isempty
    ipc.o(i.rt_mb_recv) refers to ipc.o(i.rt_ipc_list_resume) for rt_ipc_list_resume
    ipc.o(i.rt_mb_send) refers to ipc.o(i.rt_mb_send_wait) for rt_mb_send_wait
    ipc.o(i.rt_mb_send_wait) refers to thread.o(i.rt_thread_self) for rt_thread_self
    ipc.o(i.rt_mb_send_wait) refers to context_rvds.o(.text) for rt_hw_interrupt_disable
    ipc.o(i.rt_mb_send_wait) refers to ipc.o(i.rt_ipc_list_suspend) for rt_ipc_list_suspend
    ipc.o(i.rt_mb_send_wait) refers to clock.o(i.rt_tick_get) for rt_tick_get
    ipc.o(i.rt_mb_send_wait) refers to timer.o(i.rt_timer_control) for rt_timer_control
    ipc.o(i.rt_mb_send_wait) refers to timer.o(i.rt_timer_start) for rt_timer_start
    ipc.o(i.rt_mb_send_wait) refers to scheduler.o(i.rt_schedule) for rt_schedule
    ipc.o(i.rt_mb_send_wait) refers to ipc.o(i.rt_list_isempty) for rt_list_isempty
    ipc.o(i.rt_mb_send_wait) refers to ipc.o(i.rt_ipc_list_resume) for rt_ipc_list_resume
    ipc.o(i.rt_mq_control) refers to context_rvds.o(.text) for rt_hw_interrupt_disable
    ipc.o(i.rt_mq_control) refers to ipc.o(i.rt_ipc_list_resume_all) for rt_ipc_list_resume_all
    ipc.o(i.rt_mq_control) refers to scheduler.o(i.rt_schedule) for rt_schedule
    ipc.o(i.rt_mq_create) refers to object.o(i.rt_object_allocate) for rt_object_allocate
    ipc.o(i.rt_mq_create) refers to mem.o(i.rt_malloc) for rt_malloc
    ipc.o(i.rt_mq_create) refers to ipc.o(i.rt_mq_delete) for rt_mq_delete
    ipc.o(i.rt_mq_delete) refers to ipc.o(i.rt_ipc_list_resume_all) for rt_ipc_list_resume_all
    ipc.o(i.rt_mq_delete) refers to mem.o(i.rt_free) for rt_free
    ipc.o(i.rt_mq_delete) refers to object.o(i.rt_object_delete) for rt_object_delete
    ipc.o(i.rt_mq_detach) refers to ipc.o(i.rt_ipc_list_resume_all) for rt_ipc_list_resume_all
    ipc.o(i.rt_mq_detach) refers to object.o(i.rt_object_detach) for rt_object_detach
    ipc.o(i.rt_mq_init) refers to object.o(i.rt_object_init) for rt_object_init
    ipc.o(i.rt_mq_recv) refers to thread.o(i.rt_thread_self) for rt_thread_self
    ipc.o(i.rt_mq_recv) refers to context_rvds.o(.text) for rt_hw_interrupt_disable
    ipc.o(i.rt_mq_recv) refers to ipc.o(i.rt_ipc_list_suspend) for rt_ipc_list_suspend
    ipc.o(i.rt_mq_recv) refers to clock.o(i.rt_tick_get) for rt_tick_get
    ipc.o(i.rt_mq_recv) refers to timer.o(i.rt_timer_control) for rt_timer_control
    ipc.o(i.rt_mq_recv) refers to timer.o(i.rt_timer_start) for rt_timer_start
    ipc.o(i.rt_mq_recv) refers to scheduler.o(i.rt_schedule) for rt_schedule
    ipc.o(i.rt_mq_recv) refers to kservice.o(i.rt_memcpy) for rt_memcpy
    ipc.o(i.rt_mq_send) refers to context_rvds.o(.text) for rt_hw_interrupt_disable
    ipc.o(i.rt_mq_send) refers to kservice.o(i.rt_memcpy) for rt_memcpy
    ipc.o(i.rt_mq_send) refers to ipc.o(i.rt_list_isempty) for rt_list_isempty
    ipc.o(i.rt_mq_send) refers to ipc.o(i.rt_ipc_list_resume) for rt_ipc_list_resume
    ipc.o(i.rt_mq_send) refers to scheduler.o(i.rt_schedule) for rt_schedule
    ipc.o(i.rt_mq_urgent) refers to context_rvds.o(.text) for rt_hw_interrupt_disable
    ipc.o(i.rt_mq_urgent) refers to kservice.o(i.rt_memcpy) for rt_memcpy
    ipc.o(i.rt_mq_urgent) refers to ipc.o(i.rt_list_isempty) for rt_list_isempty
    ipc.o(i.rt_mq_urgent) refers to ipc.o(i.rt_ipc_list_resume) for rt_ipc_list_resume
    ipc.o(i.rt_mq_urgent) refers to scheduler.o(i.rt_schedule) for rt_schedule
    ipc.o(i.rt_sem_control) refers to context_rvds.o(.text) for rt_hw_interrupt_disable
    ipc.o(i.rt_sem_control) refers to ipc.o(i.rt_ipc_list_resume_all) for rt_ipc_list_resume_all
    ipc.o(i.rt_sem_control) refers to scheduler.o(i.rt_schedule) for rt_schedule
    ipc.o(i.rt_sem_create) refers to object.o(i.rt_object_allocate) for rt_object_allocate
    ipc.o(i.rt_sem_delete) refers to ipc.o(i.rt_ipc_list_resume_all) for rt_ipc_list_resume_all
    ipc.o(i.rt_sem_delete) refers to object.o(i.rt_object_delete) for rt_object_delete
    ipc.o(i.rt_sem_detach) refers to ipc.o(i.rt_ipc_list_resume_all) for rt_ipc_list_resume_all
    ipc.o(i.rt_sem_detach) refers to object.o(i.rt_object_detach) for rt_object_detach
    ipc.o(i.rt_sem_init) refers to object.o(i.rt_object_init) for rt_object_init
    ipc.o(i.rt_sem_release) refers to context_rvds.o(.text) for rt_hw_interrupt_disable
    ipc.o(i.rt_sem_release) refers to ipc.o(i.rt_list_isempty) for rt_list_isempty
    ipc.o(i.rt_sem_release) refers to scheduler.o(i.rt_schedule) for rt_schedule
    ipc.o(i.rt_sem_release) refers to ipc.o(i.rt_ipc_list_resume) for rt_ipc_list_resume
    ipc.o(i.rt_sem_take) refers to context_rvds.o(.text) for rt_hw_interrupt_disable
    ipc.o(i.rt_sem_take) refers to thread.o(i.rt_thread_self) for rt_thread_self
    ipc.o(i.rt_sem_take) refers to ipc.o(i.rt_ipc_list_suspend) for rt_ipc_list_suspend
    ipc.o(i.rt_sem_take) refers to timer.o(i.rt_timer_control) for rt_timer_control
    ipc.o(i.rt_sem_take) refers to timer.o(i.rt_timer_start) for rt_timer_start
    ipc.o(i.rt_sem_take) refers to scheduler.o(i.rt_schedule) for rt_schedule
    ipc.o(i.rt_sem_trytake) refers to ipc.o(i.rt_sem_take) for rt_sem_take
    irq.o(i.rt_interrupt_enter) refers to context_rvds.o(.text) for rt_hw_interrupt_disable
    irq.o(i.rt_interrupt_enter) refers to irq.o(.data) for .data
    irq.o(i.rt_interrupt_get_nest) refers to irq.o(.data) for .data
    irq.o(i.rt_interrupt_leave) refers to context_rvds.o(.text) for rt_hw_interrupt_disable
    irq.o(i.rt_interrupt_leave) refers to irq.o(.data) for .data
    kservice.o(i.__rt_ffs) refers to kservice.o(.constdata) for .constdata
    kservice.o(i._rt_errno) refers to irq.o(i.rt_interrupt_get_nest) for rt_interrupt_get_nest
    kservice.o(i._rt_errno) refers to thread.o(i.rt_thread_self) for rt_thread_self
    kservice.o(i._rt_errno) refers to kservice.o(.data) for .data
    kservice.o(i.print_number) refers to kservice.o(.constdata) for .constdata
    kservice.o(i.rt_free_align) refers to mem.o(i.rt_free) for rt_free
    kservice.o(i.rt_get_errno) refers to irq.o(i.rt_interrupt_get_nest) for rt_interrupt_get_nest
    kservice.o(i.rt_get_errno) refers to thread.o(i.rt_thread_self) for rt_thread_self
    kservice.o(i.rt_get_errno) refers to kservice.o(.data) for .data
    kservice.o(i.rt_kprintf) refers to kservice.o(i.rt_vsnprintf) for rt_vsnprintf
    kservice.o(i.rt_kprintf) refers to usart.o(i.rt_hw_console_output) for rt_hw_console_output
    kservice.o(i.rt_kprintf) refers to kservice.o(.bss) for .bss
    kservice.o(i.rt_kputs) refers to usart.o(i.rt_hw_console_output) for rt_hw_console_output
    kservice.o(i.rt_malloc_align) refers to mem.o(i.rt_malloc) for rt_malloc
    kservice.o(i.rt_set_errno) refers to irq.o(i.rt_interrupt_get_nest) for rt_interrupt_get_nest
    kservice.o(i.rt_set_errno) refers to thread.o(i.rt_thread_self) for rt_thread_self
    kservice.o(i.rt_set_errno) refers to kservice.o(.data) for .data
    kservice.o(i.rt_show_version) refers to kservice.o(i.rt_kprintf) for rt_kprintf
    kservice.o(i.rt_snprintf) refers to kservice.o(i.rt_vsnprintf) for rt_vsnprintf
    kservice.o(i.rt_sprintf) refers to kservice.o(i.rt_vsprintf) for rt_vsprintf
    kservice.o(i.rt_strdup) refers to kservice.o(i.rt_strlen) for rt_strlen
    kservice.o(i.rt_strdup) refers to mem.o(i.rt_malloc) for rt_malloc
    kservice.o(i.rt_strdup) refers to kservice.o(i.rt_memcpy) for rt_memcpy
    kservice.o(i.rt_strstr) refers to kservice.o(i.rt_strlen) for rt_strlen
    kservice.o(i.rt_strstr) refers to kservice.o(i.rt_memcmp) for rt_memcmp
    kservice.o(i.rt_vsnprintf) refers to kservice.o(i.skip_atoi) for skip_atoi
    kservice.o(i.rt_vsnprintf) refers to kservice.o(i.rt_strlen) for rt_strlen
    kservice.o(i.rt_vsnprintf) refers to kservice.o(i.print_number) for print_number
    kservice.o(i.rt_vsprintf) refers to kservice.o(i.rt_vsnprintf) for rt_vsnprintf
    mem.o(i.list_mem) refers to kservice.o(i.rt_kprintf) for rt_kprintf
    mem.o(i.list_mem) refers to mem.o(.data) for .data
    mem.o(i.plug_holes) refers to mem.o(.data) for .data
    mem.o(i.rt_calloc) refers to mem.o(i.rt_malloc) for rt_malloc
    mem.o(i.rt_calloc) refers to kservice.o(i.rt_memset) for rt_memset
    mem.o(i.rt_free) refers to ipc.o(i.rt_sem_take) for rt_sem_take
    mem.o(i.rt_free) refers to kservice.o(i.rt_kprintf) for rt_kprintf
    mem.o(i.rt_free) refers to mem.o(i.plug_holes) for plug_holes
    mem.o(i.rt_free) refers to ipc.o(i.rt_sem_release) for rt_sem_release
    mem.o(i.rt_free) refers to mem.o(.data) for .data
    mem.o(i.rt_free) refers to mem.o(.bss) for .bss
    mem.o(i.rt_malloc) refers to ipc.o(i.rt_sem_take) for rt_sem_take
    mem.o(i.rt_malloc) refers to ipc.o(i.rt_sem_release) for rt_sem_release
    mem.o(i.rt_malloc) refers to mem.o(.data) for .data
    mem.o(i.rt_malloc) refers to mem.o(.bss) for .bss
    mem.o(i.rt_memory_info) refers to mem.o(.data) for .data
    mem.o(i.rt_realloc) refers to ipc.o(i.rt_sem_take) for rt_sem_take
    mem.o(i.rt_realloc) refers to ipc.o(i.rt_sem_release) for rt_sem_release
    mem.o(i.rt_realloc) refers to mem.o(i.rt_free) for rt_free
    mem.o(i.rt_realloc) refers to mem.o(i.rt_malloc) for rt_malloc
    mem.o(i.rt_realloc) refers to mem.o(i.plug_holes) for plug_holes
    mem.o(i.rt_realloc) refers to kservice.o(i.rt_memcpy) for rt_memcpy
    mem.o(i.rt_realloc) refers to mem.o(.data) for .data
    mem.o(i.rt_realloc) refers to mem.o(.bss) for .bss
    mem.o(i.rt_system_heap_init) refers to ipc.o(i.rt_sem_init) for rt_sem_init
    mem.o(i.rt_system_heap_init) refers to kservice.o(i.rt_kprintf) for rt_kprintf
    mem.o(i.rt_system_heap_init) refers to mem.o(.data) for .data
    mem.o(i.rt_system_heap_init) refers to mem.o(.bss) for .bss
    mem.o(FSymTab) refers to mem.o(.constdata) for __fsym_list_mem_name
    mem.o(FSymTab) refers to mem.o(i.list_mem) for list_mem
    object.o(i.rt_object_allocate) refers to object.o(i.rt_object_get_information) for rt_object_get_information
    object.o(i.rt_object_allocate) refers to mem.o(i.rt_malloc) for rt_malloc
    object.o(i.rt_object_allocate) refers to kservice.o(i.rt_memset) for rt_memset
    object.o(i.rt_object_allocate) refers to kservice.o(i.rt_strncpy) for rt_strncpy
    object.o(i.rt_object_allocate) refers to context_rvds.o(.text) for rt_hw_interrupt_disable
    object.o(i.rt_object_allocate) refers to object.o(i.rt_list_insert_after) for rt_list_insert_after
    object.o(i.rt_object_delete) refers to context_rvds.o(.text) for rt_hw_interrupt_disable
    object.o(i.rt_object_delete) refers to object.o(i.rt_list_remove) for rt_list_remove
    object.o(i.rt_object_delete) refers to mem.o(i.rt_free) for rt_free
    object.o(i.rt_object_detach) refers to context_rvds.o(.text) for rt_hw_interrupt_disable
    object.o(i.rt_object_detach) refers to object.o(i.rt_list_remove) for rt_list_remove
    object.o(i.rt_object_find) refers to scheduler.o(i.rt_enter_critical) for rt_enter_critical
    object.o(i.rt_object_find) refers to object.o(i.rt_object_get_information) for rt_object_get_information
    object.o(i.rt_object_find) refers to kservice.o(i.rt_strncmp) for rt_strncmp
    object.o(i.rt_object_find) refers to scheduler.o(i.rt_exit_critical) for rt_exit_critical
    object.o(i.rt_object_get_information) refers to object.o(.data) for .data
    object.o(i.rt_object_init) refers to object.o(i.rt_object_get_information) for rt_object_get_information
    object.o(i.rt_object_init) refers to scheduler.o(i.rt_enter_critical) for rt_enter_critical
    object.o(i.rt_object_init) refers to scheduler.o(i.rt_exit_critical) for rt_exit_critical
    object.o(i.rt_object_init) refers to kservice.o(i.rt_strncpy) for rt_strncpy
    object.o(i.rt_object_init) refers to context_rvds.o(.text) for rt_hw_interrupt_disable
    object.o(i.rt_object_init) refers to object.o(i.rt_list_insert_after) for rt_list_insert_after
    scheduler.o(i.rt_critical_level) refers to scheduler.o(.data) for .data
    scheduler.o(i.rt_enter_critical) refers to context_rvds.o(.text) for rt_hw_interrupt_disable
    scheduler.o(i.rt_enter_critical) refers to scheduler.o(.data) for .data
    scheduler.o(i.rt_exit_critical) refers to context_rvds.o(.text) for rt_hw_interrupt_disable
    scheduler.o(i.rt_exit_critical) refers to scheduler.o(i.rt_schedule) for rt_schedule
    scheduler.o(i.rt_exit_critical) refers to scheduler.o(.data) for .data
    scheduler.o(i.rt_schedule) refers to context_rvds.o(.text) for rt_hw_interrupt_disable
    scheduler.o(i.rt_schedule) refers to kservice.o(i.__rt_ffs) for __rt_ffs
    scheduler.o(i.rt_schedule) refers to scheduler.o(.data) for .data
    scheduler.o(i.rt_schedule) refers to scheduler.o(.bss) for .bss
    scheduler.o(i.rt_schedule) refers to irq.o(.data) for rt_interrupt_nest
    scheduler.o(i.rt_schedule_insert_thread) refers to context_rvds.o(.text) for rt_hw_interrupt_disable
    scheduler.o(i.rt_schedule_insert_thread) refers to scheduler.o(.bss) for .bss
    scheduler.o(i.rt_schedule_insert_thread) refers to scheduler.o(.data) for .data
    scheduler.o(i.rt_schedule_remove_thread) refers to context_rvds.o(.text) for rt_hw_interrupt_disable
    scheduler.o(i.rt_schedule_remove_thread) refers to scheduler.o(.bss) for .bss
    scheduler.o(i.rt_schedule_remove_thread) refers to scheduler.o(.data) for .data
    scheduler.o(i.rt_system_scheduler_init) refers to scheduler.o(.data) for .data
    scheduler.o(i.rt_system_scheduler_init) refers to scheduler.o(.bss) for .bss
    scheduler.o(i.rt_system_scheduler_start) refers to kservice.o(i.__rt_ffs) for __rt_ffs
    scheduler.o(i.rt_system_scheduler_start) refers to context_rvds.o(.text) for rt_hw_context_switch_to
    scheduler.o(i.rt_system_scheduler_start) refers to scheduler.o(.data) for .data
    scheduler.o(i.rt_system_scheduler_start) refers to scheduler.o(.bss) for .bss
    thread.o(i._rt_thread_init) refers to kservice.o(i.rt_memset) for rt_memset
    thread.o(i._rt_thread_init) refers to cpuport.o(i.rt_hw_stack_init) for rt_hw_stack_init
    thread.o(i._rt_thread_init) refers to timer.o(i.rt_timer_init) for rt_timer_init
    thread.o(i._rt_thread_init) refers to thread.o(i.rt_thread_exit) for rt_thread_exit
    thread.o(i._rt_thread_init) refers to thread.o(i.rt_thread_timeout) for rt_thread_timeout
    thread.o(i.rt_thread_control) refers to context_rvds.o(.text) for rt_hw_interrupt_disable
    thread.o(i.rt_thread_control) refers to scheduler.o(i.rt_schedule_remove_thread) for rt_schedule_remove_thread
    thread.o(i.rt_thread_control) refers to scheduler.o(i.rt_schedule_insert_thread) for rt_schedule_insert_thread
    thread.o(i.rt_thread_control) refers to thread.o(i.rt_thread_startup) for rt_thread_startup
    thread.o(i.rt_thread_control) refers to thread.o(i.rt_thread_delete) for rt_thread_delete
    thread.o(i.rt_thread_create) refers to object.o(i.rt_object_allocate) for rt_object_allocate
    thread.o(i.rt_thread_create) refers to mem.o(i.rt_malloc) for rt_malloc
    thread.o(i.rt_thread_create) refers to thread.o(i._rt_thread_init) for _rt_thread_init
    thread.o(i.rt_thread_create) refers to object.o(i.rt_object_delete) for rt_object_delete
    thread.o(i.rt_thread_delay) refers to thread.o(i.rt_thread_sleep) for rt_thread_sleep
    thread.o(i.rt_thread_delete) refers to scheduler.o(i.rt_schedule_remove_thread) for rt_schedule_remove_thread
    thread.o(i.rt_thread_delete) refers to timer.o(i.rt_timer_detach) for rt_timer_detach
    thread.o(i.rt_thread_delete) refers to context_rvds.o(.text) for rt_hw_interrupt_disable
    thread.o(i.rt_thread_delete) refers to thread.o(i.rt_list_insert_after) for rt_list_insert_after
    thread.o(i.rt_thread_delete) refers to scheduler.o(.data) for rt_thread_defunct
    thread.o(i.rt_thread_detach) refers to scheduler.o(i.rt_schedule_remove_thread) for rt_schedule_remove_thread
    thread.o(i.rt_thread_detach) refers to timer.o(i.rt_timer_detach) for rt_timer_detach
    thread.o(i.rt_thread_detach) refers to object.o(i.rt_object_is_systemobject) for rt_object_is_systemobject
    thread.o(i.rt_thread_detach) refers to context_rvds.o(.text) for rt_hw_interrupt_disable
    thread.o(i.rt_thread_detach) refers to thread.o(i.rt_list_insert_after) for rt_list_insert_after
    thread.o(i.rt_thread_detach) refers to object.o(i.rt_object_detach) for rt_object_detach
    thread.o(i.rt_thread_detach) refers to scheduler.o(.data) for rt_thread_defunct
    thread.o(i.rt_thread_exit) refers to context_rvds.o(.text) for rt_hw_interrupt_disable
    thread.o(i.rt_thread_exit) refers to scheduler.o(i.rt_schedule_remove_thread) for rt_schedule_remove_thread
    thread.o(i.rt_thread_exit) refers to timer.o(i.rt_timer_detach) for rt_timer_detach
    thread.o(i.rt_thread_exit) refers to object.o(i.rt_object_is_systemobject) for rt_object_is_systemobject
    thread.o(i.rt_thread_exit) refers to thread.o(i.rt_list_insert_after) for rt_list_insert_after
    thread.o(i.rt_thread_exit) refers to scheduler.o(i.rt_schedule) for rt_schedule
    thread.o(i.rt_thread_exit) refers to object.o(i.rt_object_detach) for rt_object_detach
    thread.o(i.rt_thread_exit) refers to scheduler.o(.data) for rt_current_thread
    thread.o(i.rt_thread_find) refers to scheduler.o(i.rt_enter_critical) for rt_enter_critical
    thread.o(i.rt_thread_find) refers to object.o(i.rt_object_get_information) for rt_object_get_information
    thread.o(i.rt_thread_find) refers to kservice.o(i.rt_strncmp) for rt_strncmp
    thread.o(i.rt_thread_find) refers to scheduler.o(i.rt_exit_critical) for rt_exit_critical
    thread.o(i.rt_thread_find) refers to scheduler.o(.data) for rt_current_thread
    thread.o(i.rt_thread_init) refers to object.o(i.rt_object_init) for rt_object_init
    thread.o(i.rt_thread_init) refers to thread.o(i._rt_thread_init) for _rt_thread_init
    thread.o(i.rt_thread_mdelay) refers to clock.o(i.rt_tick_from_millisecond) for rt_tick_from_millisecond
    thread.o(i.rt_thread_mdelay) refers to thread.o(i.rt_thread_sleep) for rt_thread_sleep
    thread.o(i.rt_thread_resume) refers to context_rvds.o(.text) for rt_hw_interrupt_disable
    thread.o(i.rt_thread_resume) refers to thread.o(i.rt_list_remove) for rt_list_remove
    thread.o(i.rt_thread_resume) refers to timer.o(i.rt_timer_stop) for rt_timer_stop
    thread.o(i.rt_thread_resume) refers to scheduler.o(i.rt_schedule_insert_thread) for rt_schedule_insert_thread
    thread.o(i.rt_thread_self) refers to scheduler.o(.data) for rt_current_thread
    thread.o(i.rt_thread_sleep) refers to context_rvds.o(.text) for rt_hw_interrupt_disable
    thread.o(i.rt_thread_sleep) refers to thread.o(i.rt_thread_suspend) for rt_thread_suspend
    thread.o(i.rt_thread_sleep) refers to timer.o(i.rt_timer_control) for rt_timer_control
    thread.o(i.rt_thread_sleep) refers to timer.o(i.rt_timer_start) for rt_timer_start
    thread.o(i.rt_thread_sleep) refers to scheduler.o(i.rt_schedule) for rt_schedule
    thread.o(i.rt_thread_sleep) refers to scheduler.o(.data) for rt_current_thread
    thread.o(i.rt_thread_startup) refers to thread.o(i.rt_thread_resume) for rt_thread_resume
    thread.o(i.rt_thread_startup) refers to scheduler.o(i.rt_schedule) for rt_schedule
    thread.o(i.rt_thread_startup) refers to scheduler.o(.data) for rt_current_thread
    thread.o(i.rt_thread_suspend) refers to context_rvds.o(.text) for rt_hw_interrupt_disable
    thread.o(i.rt_thread_suspend) refers to scheduler.o(i.rt_schedule_remove_thread) for rt_schedule_remove_thread
    thread.o(i.rt_thread_suspend) refers to timer.o(i.rt_timer_stop) for rt_timer_stop
    thread.o(i.rt_thread_timeout) refers to thread.o(i.rt_list_remove) for rt_list_remove
    thread.o(i.rt_thread_timeout) refers to scheduler.o(i.rt_schedule_insert_thread) for rt_schedule_insert_thread
    thread.o(i.rt_thread_timeout) refers to scheduler.o(i.rt_schedule) for rt_schedule
    thread.o(i.rt_thread_yield) refers to context_rvds.o(.text) for rt_hw_interrupt_disable
    thread.o(i.rt_thread_yield) refers to thread.o(i.rt_list_remove) for rt_list_remove
    thread.o(i.rt_thread_yield) refers to scheduler.o(i.rt_schedule) for rt_schedule
    thread.o(i.rt_thread_yield) refers to scheduler.o(.data) for rt_current_thread
    thread.o(i.rt_thread_yield) refers to scheduler.o(.bss) for rt_thread_priority_table
    timer.o(i.rt_system_timer_init) refers to timer.o(.data) for .data
    timer.o(i.rt_timer_check) refers to clock.o(i.rt_tick_get) for rt_tick_get
    timer.o(i.rt_timer_check) refers to context_rvds.o(.text) for rt_hw_interrupt_disable
    timer.o(i.rt_timer_check) refers to timer.o(i._rt_timer_remove) for _rt_timer_remove
    timer.o(i.rt_timer_check) refers to timer.o(i.rt_timer_start) for rt_timer_start
    timer.o(i.rt_timer_check) refers to timer.o(i.rt_list_isempty) for rt_list_isempty
    timer.o(i.rt_timer_check) refers to timer.o(.data) for .data
    timer.o(i.rt_timer_create) refers to object.o(i.rt_object_allocate) for rt_object_allocate
    timer.o(i.rt_timer_create) refers to timer.o(i._rt_timer_init) for _rt_timer_init
    timer.o(i.rt_timer_delete) refers to context_rvds.o(.text) for rt_hw_interrupt_disable
    timer.o(i.rt_timer_delete) refers to timer.o(i._rt_timer_remove) for _rt_timer_remove
    timer.o(i.rt_timer_delete) refers to object.o(i.rt_object_delete) for rt_object_delete
    timer.o(i.rt_timer_detach) refers to context_rvds.o(.text) for rt_hw_interrupt_disable
    timer.o(i.rt_timer_detach) refers to timer.o(i._rt_timer_remove) for _rt_timer_remove
    timer.o(i.rt_timer_detach) refers to object.o(i.rt_object_detach) for rt_object_detach
    timer.o(i.rt_timer_init) refers to object.o(i.rt_object_init) for rt_object_init
    timer.o(i.rt_timer_init) refers to timer.o(i._rt_timer_init) for _rt_timer_init
    timer.o(i.rt_timer_next_timeout_tick) refers to timer.o(i.rt_list_isempty) for rt_list_isempty
    timer.o(i.rt_timer_next_timeout_tick) refers to timer.o(.data) for .data
    timer.o(i.rt_timer_start) refers to context_rvds.o(.text) for rt_hw_interrupt_disable
    timer.o(i.rt_timer_start) refers to timer.o(i._rt_timer_remove) for _rt_timer_remove
    timer.o(i.rt_timer_start) refers to clock.o(i.rt_tick_get) for rt_tick_get
    timer.o(i.rt_timer_start) refers to timer.o(i.rt_list_insert_after) for rt_list_insert_after
    timer.o(i.rt_timer_start) refers to timer.o(.data) for .data
    timer.o(i.rt_timer_stop) refers to context_rvds.o(.text) for rt_hw_interrupt_disable
    timer.o(i.rt_timer_stop) refers to timer.o(i._rt_timer_remove) for _rt_timer_remove
    cpuport.o(i.bus_fault_track) refers to kservice.o(i.rt_kprintf) for rt_kprintf
    cpuport.o(i.hard_fault_track) refers to kservice.o(i.rt_kprintf) for rt_kprintf
    cpuport.o(i.hard_fault_track) refers to cpuport.o(i.bus_fault_track) for bus_fault_track
    cpuport.o(i.hard_fault_track) refers to cpuport.o(i.mem_manage_fault_track) for mem_manage_fault_track
    cpuport.o(i.hard_fault_track) refers to cpuport.o(i.usage_fault_track) for usage_fault_track
    cpuport.o(i.mem_manage_fault_track) refers to kservice.o(i.rt_kprintf) for rt_kprintf
    cpuport.o(i.mem_manage_fault_track) refers to cpuport.o(i.usage_fault_track) for i.usage_fault_track
    cpuport.o(i.rt_hw_cpu_shutdown) refers to kservice.o(i.rt_kprintf) for rt_kprintf
    cpuport.o(i.rt_hw_exception_install) refers to cpuport.o(.data) for .data
    cpuport.o(i.rt_hw_hard_fault_exception) refers to kservice.o(i.rt_kprintf) for rt_kprintf
    cpuport.o(i.rt_hw_hard_fault_exception) refers to thread.o(i.rt_thread_self) for rt_thread_self
    cpuport.o(i.rt_hw_hard_fault_exception) refers to cmd.o(i.list_thread) for list_thread
    cpuport.o(i.rt_hw_hard_fault_exception) refers to cpuport.o(i.hard_fault_track) for hard_fault_track
    cpuport.o(i.rt_hw_hard_fault_exception) refers to cpuport.o(.data) for .data
    cpuport.o(i.usage_fault_track) refers to kservice.o(i.rt_kprintf) for rt_kprintf
    context_rvds.o(.text) refers to cpuport.o(i.rt_hw_hard_fault_exception) for rt_hw_hard_fault_exception
    context_rvds.o(.text) refers to cpuport.o(.data) for rt_thread_switch_interrupt_flag
    context_rvds.o(.text) refers to cpuport.o(.data) for rt_interrupt_from_thread
    context_rvds.o(.text) refers to cpuport.o(.data) for rt_interrupt_to_thread
    cmd.o(i.hello) refers to kservice.o(i.rt_kprintf) for rt_kprintf
    cmd.o(i.list) refers to kservice.o(i.rt_kprintf) for rt_kprintf
    cmd.o(i.list) refers to strncmp.o(.text) for strncmp
    cmd.o(i.list) refers to shell.o(.data) for _syscall_table_begin
    cmd.o(i.list_event) refers to cmd.o(i.list_find_init) for list_find_init
    cmd.o(i.list_event) refers to kservice.o(i.rt_kprintf) for rt_kprintf
    cmd.o(i.list_event) refers to cmd.o(i.object_split) for object_split
    cmd.o(i.list_event) refers to cmd.o(i.list_get_next) for list_get_next
    cmd.o(i.list_event) refers to context_rvds.o(.text) for rt_hw_interrupt_disable
    cmd.o(i.list_event) refers to cmd.o(i.rt_list_isempty) for rt_list_isempty
    cmd.o(i.list_event) refers to cmd.o(i.rt_list_len) for rt_list_len
    cmd.o(i.list_event) refers to cmd.o(i.show_wait_queue) for show_wait_queue
    cmd.o(i.list_find_init) refers to object.o(i.rt_object_get_information) for rt_object_get_information
    cmd.o(i.list_get_next) refers to context_rvds.o(.text) for rt_hw_interrupt_disable
    cmd.o(i.list_mailbox) refers to cmd.o(i.list_find_init) for list_find_init
    cmd.o(i.list_mailbox) refers to kservice.o(i.rt_kprintf) for rt_kprintf
    cmd.o(i.list_mailbox) refers to cmd.o(i.object_split) for object_split
    cmd.o(i.list_mailbox) refers to cmd.o(i.list_get_next) for list_get_next
    cmd.o(i.list_mailbox) refers to context_rvds.o(.text) for rt_hw_interrupt_disable
    cmd.o(i.list_mailbox) refers to cmd.o(i.rt_list_isempty) for rt_list_isempty
    cmd.o(i.list_mailbox) refers to cmd.o(i.rt_list_len) for rt_list_len
    cmd.o(i.list_mailbox) refers to cmd.o(i.show_wait_queue) for show_wait_queue
    cmd.o(i.list_msgqueue) refers to cmd.o(i.list_find_init) for list_find_init
    cmd.o(i.list_msgqueue) refers to kservice.o(i.rt_kprintf) for rt_kprintf
    cmd.o(i.list_msgqueue) refers to cmd.o(i.object_split) for object_split
    cmd.o(i.list_msgqueue) refers to cmd.o(i.list_get_next) for list_get_next
    cmd.o(i.list_msgqueue) refers to context_rvds.o(.text) for rt_hw_interrupt_disable
    cmd.o(i.list_msgqueue) refers to cmd.o(i.rt_list_isempty) for rt_list_isempty
    cmd.o(i.list_msgqueue) refers to cmd.o(i.rt_list_len) for rt_list_len
    cmd.o(i.list_msgqueue) refers to cmd.o(i.show_wait_queue) for show_wait_queue
    cmd.o(i.list_sem) refers to cmd.o(i.list_find_init) for list_find_init
    cmd.o(i.list_sem) refers to kservice.o(i.rt_kprintf) for rt_kprintf
    cmd.o(i.list_sem) refers to cmd.o(i.object_split) for object_split
    cmd.o(i.list_sem) refers to cmd.o(i.list_get_next) for list_get_next
    cmd.o(i.list_sem) refers to context_rvds.o(.text) for rt_hw_interrupt_disable
    cmd.o(i.list_sem) refers to cmd.o(i.rt_list_isempty) for rt_list_isempty
    cmd.o(i.list_sem) refers to cmd.o(i.rt_list_len) for rt_list_len
    cmd.o(i.list_sem) refers to cmd.o(i.show_wait_queue) for show_wait_queue
    cmd.o(i.list_thread) refers to cmd.o(i.list_find_init) for list_find_init
    cmd.o(i.list_thread) refers to kservice.o(i.rt_kprintf) for rt_kprintf
    cmd.o(i.list_thread) refers to cmd.o(i.object_split) for object_split
    cmd.o(i.list_thread) refers to cmd.o(i.list_get_next) for list_get_next
    cmd.o(i.list_thread) refers to context_rvds.o(.text) for rt_hw_interrupt_disable
    cmd.o(i.list_thread) refers to rt_memcpy_w.o(.text) for __aeabi_memcpy4
    cmd.o(i.list_thread) refers to cmd.o(.conststring) for .conststring
    cmd.o(i.list_timer) refers to cmd.o(i.list_find_init) for list_find_init
    cmd.o(i.list_timer) refers to kservice.o(i.rt_kprintf) for rt_kprintf
    cmd.o(i.list_timer) refers to cmd.o(i.object_split) for object_split
    cmd.o(i.list_timer) refers to cmd.o(i.list_get_next) for list_get_next
    cmd.o(i.list_timer) refers to context_rvds.o(.text) for rt_hw_interrupt_disable
    cmd.o(i.list_timer) refers to clock.o(i.rt_tick_get) for rt_tick_get
    cmd.o(i.object_split) refers to kservice.o(i.rt_kprintf) for rt_kprintf
    cmd.o(i.show_wait_queue) refers to kservice.o(i.rt_kprintf) for rt_kprintf
    cmd.o(i.version) refers to kservice.o(i.rt_show_version) for rt_show_version
    cmd.o(FSymTab) refers to cmd.o(.constdata) for __fsym_hello_name
    cmd.o(FSymTab) refers to cmd.o(i.hello) for hello
    cmd.o(FSymTab) refers to cmd.o(.constdata) for __fsym_version_name
    cmd.o(FSymTab) refers to cmd.o(i.version) for version
    cmd.o(FSymTab) refers to cmd.o(.constdata) for __fsym___cmd_version_name
    cmd.o(FSymTab) refers to cmd.o(.constdata) for __fsym_list_thread_name
    cmd.o(FSymTab) refers to cmd.o(i.list_thread) for list_thread
    cmd.o(FSymTab) refers to cmd.o(.constdata) for __fsym___cmd_list_thread_name
    cmd.o(FSymTab) refers to cmd.o(.constdata) for __fsym_list_sem_name
    cmd.o(FSymTab) refers to cmd.o(i.list_sem) for list_sem
    cmd.o(FSymTab) refers to cmd.o(.constdata) for __fsym___cmd_list_sem_name
    cmd.o(FSymTab) refers to cmd.o(.constdata) for __fsym_list_event_name
    cmd.o(FSymTab) refers to cmd.o(i.list_event) for list_event
    cmd.o(FSymTab) refers to cmd.o(.constdata) for __fsym___cmd_list_event_name
    cmd.o(FSymTab) refers to cmd.o(.constdata) for __fsym_list_mailbox_name
    cmd.o(FSymTab) refers to cmd.o(i.list_mailbox) for list_mailbox
    cmd.o(FSymTab) refers to cmd.o(.constdata) for __fsym___cmd_list_mailbox_name
    cmd.o(FSymTab) refers to cmd.o(.constdata) for __fsym_list_msgqueue_name
    cmd.o(FSymTab) refers to cmd.o(i.list_msgqueue) for list_msgqueue
    cmd.o(FSymTab) refers to cmd.o(.constdata) for __fsym___cmd_list_msgqueue_name
    cmd.o(FSymTab) refers to cmd.o(.constdata) for __fsym_list_timer_name
    cmd.o(FSymTab) refers to cmd.o(i.list_timer) for list_timer
    cmd.o(FSymTab) refers to cmd.o(.constdata) for __fsym___cmd_list_timer_name
    cmd.o(FSymTab) refers to cmd.o(.constdata) for __fsym_list_name
    cmd.o(FSymTab) refers to cmd.o(i.list) for list
    msh.o(i._msh_exec_cmd) refers to strncmp.o(.text) for strncmp
    msh.o(i._msh_exec_cmd) refers to rt_memclr_w.o(.text) for __aeabi_memclr4
    msh.o(i._msh_exec_cmd) refers to msh.o(i.msh_split) for msh_split
    msh.o(i._msh_exec_cmd) refers to shell.o(.data) for _syscall_table_begin
    msh.o(i.cmd_free) refers to mem.o(i.list_mem) for list_mem
    msh.o(i.cmd_ps) refers to cmd.o(i.list_thread) for list_thread
    msh.o(i.msh_auto_complete) refers to msh.o(i.msh_help) for msh_help
    msh.o(i.msh_auto_complete) refers to strncmp.o(.text) for strncmp
    msh.o(i.msh_auto_complete) refers to strlen.o(.text) for strlen
    msh.o(i.msh_auto_complete) refers to kservice.o(i.rt_kprintf) for rt_kprintf
    msh.o(i.msh_auto_complete) refers to kservice.o(i.rt_strncpy) for rt_strncpy
    msh.o(i.msh_auto_complete) refers to shell.o(.data) for _syscall_table_begin
    msh.o(i.msh_exec) refers to msh.o(i._msh_exec_cmd) for _msh_exec_cmd
    msh.o(i.msh_exec) refers to kservice.o(i.rt_kprintf) for rt_kprintf
    msh.o(i.msh_help) refers to kservice.o(i.rt_kprintf) for rt_kprintf
    msh.o(i.msh_help) refers to strncmp.o(.text) for strncmp
    msh.o(i.msh_help) refers to shell.o(.data) for _syscall_table_begin
    msh.o(i.msh_split) refers to kservice.o(i.rt_kprintf) for rt_kprintf
    msh.o(FSymTab) refers to msh.o(.constdata) for __fsym___cmd_help_name
    msh.o(FSymTab) refers to msh.o(i.msh_help) for msh_help
    msh.o(FSymTab) refers to msh.o(.constdata) for __fsym___cmd_ps_name
    msh.o(FSymTab) refers to msh.o(i.cmd_ps) for cmd_ps
    msh.o(FSymTab) refers to msh.o(.constdata) for __fsym___cmd_free_name
    msh.o(FSymTab) refers to msh.o(i.cmd_free) for cmd_free
    shell.o(i.finsh_get_echo) refers to shell.o(.data) for .data
    shell.o(i.finsh_get_prompt) refers to strncpy.o(.text) for strncpy
    shell.o(i.finsh_get_prompt) refers to msh.o(i.msh_is_used) for msh_is_used
    shell.o(i.finsh_get_prompt) refers to strcpy.o(.text) for strcpy
    shell.o(i.finsh_get_prompt) refers to strcat.o(.text) for strcat
    shell.o(i.finsh_get_prompt) refers to shell.o(.data) for .data
    shell.o(i.finsh_get_prompt) refers to shell.o(.bss) for .bss
    shell.o(i.finsh_get_prompt_mode) refers to shell.o(.data) for .data
    shell.o(i.finsh_set_echo) refers to shell.o(.data) for .data
    shell.o(i.finsh_set_prompt) refers to mem.o(i.rt_free) for rt_free
    shell.o(i.finsh_set_prompt) refers to strlen.o(.text) for strlen
    shell.o(i.finsh_set_prompt) refers to mem.o(i.rt_malloc) for rt_malloc
    shell.o(i.finsh_set_prompt) refers to strcpy.o(.text) for strcpy
    shell.o(i.finsh_set_prompt) refers to shell.o(.data) for .data
    shell.o(i.finsh_set_prompt_mode) refers to shell.o(.data) for .data
    shell.o(i.finsh_system_function_init) refers to shell.o(.data) for .data
    shell.o(i.finsh_system_init) refers to shell.o(i.finsh_system_function_init) for finsh_system_function_init
    shell.o(i.finsh_system_init) refers to mem.o(i.rt_calloc) for rt_calloc
    shell.o(i.finsh_system_init) refers to thread.o(i.rt_thread_create) for rt_thread_create
    shell.o(i.finsh_system_init) refers to ipc.o(i.rt_sem_init) for rt_sem_init
    shell.o(i.finsh_system_init) refers to shell.o(i.finsh_set_prompt_mode) for finsh_set_prompt_mode
    shell.o(i.finsh_system_init) refers to thread.o(i.rt_thread_startup) for rt_thread_startup
    shell.o(i.finsh_system_init) refers to kservice.o(i.rt_kprintf) for rt_kprintf
    shell.o(i.finsh_system_init) refers to shell.o(.data) for .data
    shell.o(i.finsh_system_init) refers to shell.o(i.finsh_thread_entry) for finsh_thread_entry
    shell.o(i.finsh_system_var_init) refers to shell.o(.data) for .data
    shell.o(i.finsh_thread_entry) refers to shell.o(i.finsh_get_prompt) for finsh_get_prompt
    shell.o(i.finsh_thread_entry) refers to kservice.o(i.rt_kprintf) for rt_kprintf
    shell.o(i.finsh_thread_entry) refers to usart.o(i.rt_hw_console_getchar) for rt_hw_console_getchar
    shell.o(i.finsh_thread_entry) refers to kservice.o(i.rt_memmove) for rt_memmove
    shell.o(i.finsh_thread_entry) refers to msh.o(i.msh_is_used) for msh_is_used
    shell.o(i.finsh_thread_entry) refers to msh.o(i.msh_auto_complete) for msh_auto_complete
    shell.o(i.finsh_thread_entry) refers to strlen.o(.text) for strlen
    shell.o(i.finsh_thread_entry) refers to msh.o(i.msh_exec) for msh_exec
    shell.o(i.finsh_thread_entry) refers to rt_memclr.o(.text) for __aeabi_memclr
    shell.o(i.finsh_thread_entry) refers to shell.o(.data) for .data
    shell.o(.rti_fn.6) refers to shell.o(i.finsh_system_init) for finsh_system_init
    lcd_basic_application.o(i.DrawCircular_SymmetryPoint) refers to lcd_basic_application.o(i.DrawPoint) for DrawPoint
    lcd_basic_application.o(i.DrawFont16) refers to lcd.o(i.LCD_SetWindows) for LCD_SetWindows
    lcd_basic_application.o(i.DrawFont16) refers to lcd_basic_application.o(i.DrawPoint) for DrawPoint
    lcd_basic_application.o(i.DrawFont16) refers to lcd.o(i.LCD_WR_DATA) for LCD_WR_DATA
    lcd_basic_application.o(i.DrawFont16) refers to lcd_basic_application.o(.constdata) for .constdata
    lcd_basic_application.o(i.DrawFont16) refers to lcd.o(.bss) for lcddev
    lcd_basic_application.o(i.DrawFont24) refers to lcd.o(i.LCD_SetWindows) for LCD_SetWindows
    lcd_basic_application.o(i.DrawFont24) refers to lcd_basic_application.o(i.DrawPoint) for DrawPoint
    lcd_basic_application.o(i.DrawFont24) refers to lcd.o(i.LCD_WR_DATA) for LCD_WR_DATA
    lcd_basic_application.o(i.DrawFont24) refers to lcd_basic_application.o(.constdata) for .constdata
    lcd_basic_application.o(i.DrawFont24) refers to lcd.o(.bss) for lcddev
    lcd_basic_application.o(i.DrawFont32) refers to lcd.o(i.LCD_SetWindows) for LCD_SetWindows
    lcd_basic_application.o(i.DrawFont32) refers to lcd_basic_application.o(i.DrawPoint) for DrawPoint
    lcd_basic_application.o(i.DrawFont32) refers to lcd.o(i.LCD_WR_DATA) for LCD_WR_DATA
    lcd_basic_application.o(i.DrawFont32) refers to lcd_basic_application.o(.constdata) for .constdata
    lcd_basic_application.o(i.DrawFont32) refers to lcd.o(.bss) for lcddev
    lcd_basic_application.o(i.DrawHollowCircular) refers to lcd_basic_application.o(i.DrawCircular_SymmetryPoint) for DrawCircular_SymmetryPoint
    lcd_basic_application.o(i.DrawHollowRectangle) refers to lcd_basic_application.o(i.DrawLine) for DrawLine
    lcd_basic_application.o(i.DrawLine) refers to lcd_basic_application.o(i.DrawPoint) for DrawPoint
    lcd_basic_application.o(i.DrawPoint) refers to lcd.o(i.LCD_SetCursor) for LCD_SetCursor
    lcd_basic_application.o(i.DrawSolidCircular) refers to lcd_basic_application.o(i.DrawCircular_SymmetryPoint) for DrawCircular_SymmetryPoint
    lcd_basic_application.o(i.DrawSolidRectangle) refers to lcd.o(i.LCD_SetWindows) for LCD_SetWindows
    lcd_basic_application.o(i.DrawSolidRectangle) refers to lcd.o(.bss) for lcddev
    lcd_basic_application.o(i.ShowCP) refers to lcd_basic_application.o(i.DrawSolidRectangle) for DrawSolidRectangle
    lcd_basic_application.o(i.ShowCP) refers to lcd.o(i.LCD_SetWindows) for LCD_SetWindows
    lcd_basic_application.o(i.ShowCP) refers to license_plate_recognition.o(.constdata) for ZF
    lcd_basic_application.o(i.ShowCP) refers to lcd.o(.bss) for lcddev
    lcd_basic_application.o(i.ShowChar) refers to lcd.o(i.LCD_SetWindows) for LCD_SetWindows
    lcd_basic_application.o(i.ShowChar) refers to lcd_basic_application.o(i.DrawPoint) for DrawPoint
    lcd_basic_application.o(i.ShowChar) refers to lcd_basic_application.o(.constdata) for .constdata
    lcd_basic_application.o(i.ShowChar) refers to lcd.o(.data) for POINT_COLOR
    lcd_basic_application.o(i.ShowChar) refers to lcd.o(.bss) for lcddev
    lcd_basic_application.o(i.ShowString) refers to lcd_basic_application.o(i.ShowChar) for ShowChar
    lcd_basic_application.o(i.ShowString) refers to lcd.o(.bss) for lcddev
    lcd_basic_application.o(i.ShowYW24) refers to lcd.o(i.LCD_SetWindows) for LCD_SetWindows
    lcd_basic_application.o(i.ShowYW24) refers to lcd.o(.bss) for lcddev
    lcd_basic_application.o(i.ShowYW24) refers to lcd_basic_application.o(.constdata) for .constdata
    lcd_basic_application.o(i.Show_Str) refers to lcd_basic_application.o(i.DrawFont16) for DrawFont16
    lcd_basic_application.o(i.Show_Str) refers to lcd_basic_application.o(i.ShowChar) for ShowChar
    lcd_basic_application.o(i.Show_Str) refers to lcd_basic_application.o(i.DrawFont32) for DrawFont32
    lcd_basic_application.o(i.Show_Str) refers to lcd_basic_application.o(i.DrawFont24) for DrawFont24
    lcd_basic_application.o(i.Show_Str) refers to lcd.o(.bss) for lcddev
    lcd_basic_application.o(i.Show_Str) refers to lcd.o(.data) for POINT_COLOR
    lcd_interface_design.o(i.Interface_init) refers to lcd.o(i.LCD_Clear) for LCD_Clear
    lcd_interface_design.o(i.Interface_init) refers to lcd_basic_application.o(i.Show_Str) for Show_Str
    lcd_interface_design.o(i.Interface_init) refers to lcd_basic_application.o(i.DrawLine) for DrawLine
    lcd_interface_design.o(i.Interface_init) refers to lcd_basic_application.o(i.DrawHollowRectangle) for DrawHollowRectangle
    lcd_interface_design.o(i.Interface_init) refers to lcd_interface_design.o(i.Parking_information) for Parking_information
    lcd_interface_design.o(i.Interface_init) refers to lcd_interface_design.o(i.alert) for alert
    lcd_interface_design.o(i.LP_display) refers to lcd_basic_application.o(i.DrawSolidRectangle) for DrawSolidRectangle
    lcd_interface_design.o(i.LP_display) refers to lcd_basic_application.o(i.DrawLine) for DrawLine
    lcd_interface_design.o(i.LP_display) refers to lcd_basic_application.o(i.Show_Str) for Show_Str
    lcd_interface_design.o(i.Parking_information) refers to lcd_basic_application.o(i.DrawSolidRectangle) for DrawSolidRectangle
    lcd_interface_design.o(i.Parking_information) refers to lcd_basic_application.o(i.DrawHollowRectangle) for DrawHollowRectangle
    lcd_interface_design.o(i.Parking_information) refers to lcd_basic_application.o(i.Show_Str) for Show_Str
    lcd_interface_design.o(i.Parking_information) refers to lcd_basic_application.o(i.DrawLine) for DrawLine
    lcd_interface_design.o(i.Parking_information) refers to lcd_basic_application.o(i.ShowYW24) for ShowYW24
    lcd_interface_design.o(i.alert) refers to lcd_basic_application.o(i.Show_Str) for Show_Str
    lcd_interface_design.o(i.alert) refers to lcd_basic_application.o(i.DrawSolidCircular) for DrawSolidCircular
    lcd_interface_design.o(i.alert) refers to lcd_basic_application.o(i.DrawHollowCircular) for DrawHollowCircular
    lcd_interface_design.o(i.alert) refers to lcd_basic_application.o(i.DrawSolidRectangle) for DrawSolidRectangle
    lcd_interface_design.o(i.alert) refers to lcd_basic_application.o(i.ShowChar) for ShowChar
    license_plate_recognition.o(i.Area_bin) refers to dflt_clz.o(x$fpl$dfltu) for __aeabi_ui2d
    license_plate_recognition.o(i.Area_bin) refers to dmul.o(x$fpl$dmul) for __aeabi_dmul
    license_plate_recognition.o(i.Area_bin) refers to daddsub_clz.o(x$fpl$dadd) for __aeabi_dadd
    license_plate_recognition.o(i.Area_bin) refers to dfixu.o(x$fpl$dfixu) for __aeabi_d2uiz
    license_plate_recognition.o(i.Area_bin) refers to license_plate_recognition.o(.data) for .data
    license_plate_recognition.o(i.Area_bin) refers to license_plate_recognition.o(.bss) for .bss
    license_plate_recognition.o(i.Areap_LP) refers to rt_memclr_w.o(.text) for __aeabi_memclr4
    license_plate_recognition.o(i.Areap_LP) refers to dflt_clz.o(x$fpl$dfltu) for __aeabi_ui2d
    license_plate_recognition.o(i.Areap_LP) refers to dmul.o(x$fpl$dmul) for __aeabi_dmul
    license_plate_recognition.o(i.Areap_LP) refers to daddsub_clz.o(x$fpl$dadd) for __aeabi_dadd
    license_plate_recognition.o(i.Areap_LP) refers to dfixu.o(x$fpl$dfixu) for __aeabi_d2uiz
    license_plate_recognition.o(i.Areap_LP) refers to license_plate_recognition.o(.data) for .data
    license_plate_recognition.o(i.Character_matching) refers to license_plate_recognition.o(.bss) for .bss
    license_plate_recognition.o(i.Character_matching) refers to license_plate_recognition.o(.constdata) for .constdata
    license_plate_recognition.o(i.Character_segmentation) refers to rt_memclr_w.o(.text) for __aeabi_memclr4
    license_plate_recognition.o(i.Character_segmentation) refers to license_plate_recognition.o(i.Scaling_Normalization) for Scaling_Normalization
    license_plate_recognition.o(i.Character_segmentation) refers to license_plate_recognition.o(i.Character_matching) for Character_matching
    license_plate_recognition.o(i.Character_segmentation) refers to license_plate_recognition.o(.data) for .data
    license_plate_recognition.o(i.Character_segmentation) refers to license_plate_recognition.o(.bss) for .bss
    license_plate_recognition.o(i.Entrance_LP_communication) refers to _printf_percent.o(.ARM.Collect$$_printf_percent$$00000000) for _printf_percent
    license_plate_recognition.o(i.Entrance_LP_communication) refers to _printf_c.o(.ARM.Collect$$_printf_percent$$00000013) for _printf_c
    license_plate_recognition.o(i.Entrance_LP_communication) refers to _printf_s.o(.ARM.Collect$$_printf_percent$$00000014) for _printf_s
    license_plate_recognition.o(i.Entrance_LP_communication) refers to _printf_str.o(.text) for _printf_str
    license_plate_recognition.o(i.Entrance_LP_communication) refers to noretval__2sprintf.o(.text) for __2sprintf
    license_plate_recognition.o(i.Entrance_LP_communication) refers to usart.o(i.USART_printf) for USART_printf
    license_plate_recognition.o(i.Entrance_LP_communication) refers to license_plate_recognition.o(.data) for .data
    license_plate_recognition.o(i.Entrance_LP_communication) refers to license_plate_recognition.o(.constdata) for .constdata
    license_plate_recognition.o(i.Exit_LP_communication) refers to _printf_percent.o(.ARM.Collect$$_printf_percent$$00000000) for _printf_percent
    license_plate_recognition.o(i.Exit_LP_communication) refers to _printf_c.o(.ARM.Collect$$_printf_percent$$00000013) for _printf_c
    license_plate_recognition.o(i.Exit_LP_communication) refers to _printf_s.o(.ARM.Collect$$_printf_percent$$00000014) for _printf_s
    license_plate_recognition.o(i.Exit_LP_communication) refers to _printf_str.o(.text) for _printf_str
    license_plate_recognition.o(i.Exit_LP_communication) refers to noretval__2sprintf.o(.text) for __2sprintf
    license_plate_recognition.o(i.Exit_LP_communication) refers to usart.o(i.USART_printf) for USART_printf
    license_plate_recognition.o(i.Exit_LP_communication) refers to thread.o(i.rt_thread_mdelay) for rt_thread_mdelay
    license_plate_recognition.o(i.Exit_LP_communication) refers to lcd_basic_application.o(i.Show_Str) for Show_Str
    license_plate_recognition.o(i.Exit_LP_communication) refers to license_plate_recognition.o(.data) for .data
    license_plate_recognition.o(i.Exit_LP_communication) refers to license_plate_recognition.o(.constdata) for .constdata
    license_plate_recognition.o(i.Exit_LP_communication) refers to esp8266.o(.bss) for strEsp8266_Fram_Record
    license_plate_recognition.o(i.Number_recognition_LP) refers to lcd_interface_design.o(i.LP_display) for LP_display
    license_plate_recognition.o(i.Number_recognition_LP) refers to license_plate_recognition.o(i.Areap_LP) for Areap_LP
    license_plate_recognition.o(i.Number_recognition_LP) refers to license_plate_recognition.o(i.Area_bin) for Area_bin
    license_plate_recognition.o(i.Number_recognition_LP) refers to license_plate_recognition.o(i.Character_segmentation) for Character_segmentation
    license_plate_recognition.o(i.Number_recognition_LP) refers to lcd_basic_application.o(i.ShowCP) for ShowCP
    license_plate_recognition.o(i.Number_recognition_LP) refers to lcd_basic_application.o(i.Show_Str) for Show_Str
    license_plate_recognition.o(i.Number_recognition_LP) refers to license_plate_recognition.o(.data) for .data
    license_plate_recognition.o(i.Scaling_Normalization) refers to rt_memclr_w.o(.text) for __aeabi_memclr4
    license_plate_recognition.o(i.Scaling_Normalization) refers to license_plate_recognition.o(.data) for .data
    license_plate_recognition.o(i.Scaling_Normalization) refers to license_plate_recognition.o(.bss) for .bss
    parking_detection_processing.o(i.ButtonDetect) refers to ipc.o(i.rt_mq_send) for rt_mq_send
    parking_detection_processing.o(i.ButtonDetect) refers to parking_detection_processing.o(.data) for .data
    parking_detection_processing.o(i.ButtonInit) refers to smoke_sensor.o(i.Smoke_Init) for Smoke_Init
    parking_detection_processing.o(i.ButtonInit) refers to infrared_barrier.o(i.Infrared_Init) for Infrared_Init
    parking_detection_processing.o(i.ButtonInit) refers to parking_detection_processing.o(i.ButtonVarInit) for ButtonVarInit
    parking_detection_processing.o(i.ButtonProj) refers to parking_detection_processing.o(i.ButtonDetect) for ButtonDetect
    parking_detection_processing.o(i.ButtonProj) refers to parking_detection_processing.o(i.ParkingDetect) for ParkingDetect
    parking_detection_processing.o(i.ButtonProj) refers to parking_detection_processing.o(i.UrgentDetect) for UrgentDetect
    parking_detection_processing.o(i.ButtonProj) refers to parking_detection_processing.o(.bss) for .bss
    parking_detection_processing.o(i.ButtonVarInit) refers to parking_detection_processing.o(i.IsKey1Down) for IsKey1Down
    parking_detection_processing.o(i.ButtonVarInit) refers to parking_detection_processing.o(.bss) for .bss
    parking_detection_processing.o(i.ButtonVarInit) refers to parking_detection_processing.o(i.IsKey2Down) for IsKey2Down
    parking_detection_processing.o(i.ButtonVarInit) refers to parking_detection_processing.o(i.IsKey3Down) for IsKey3Down
    parking_detection_processing.o(i.ButtonVarInit) refers to parking_detection_processing.o(i.IsKey4Down) for IsKey4Down
    parking_detection_processing.o(i.ButtonVarInit) refers to parking_detection_processing.o(i.IsKey5Down) for IsKey5Down
    parking_detection_processing.o(i.ButtonVarInit) refers to parking_detection_processing.o(i.IsKey6Down) for IsKey6Down
    parking_detection_processing.o(i.ButtonVarInit) refers to parking_detection_processing.o(i.IsKey7Down) for IsKey7Down
    parking_detection_processing.o(i.In_ProcessSoftTimer_callback) refers to parking_detection_processing.o(i.ButtonProj) for ButtonProj
    parking_detection_processing.o(i.IsKey1Down) refers to stm32f10x_gpio.o(i.GPIO_ReadInputDataBit) for GPIO_ReadInputDataBit
    parking_detection_processing.o(i.IsKey2Down) refers to stm32f10x_gpio.o(i.GPIO_ReadInputDataBit) for GPIO_ReadInputDataBit
    parking_detection_processing.o(i.IsKey3Down) refers to stm32f10x_gpio.o(i.GPIO_ReadInputDataBit) for GPIO_ReadInputDataBit
    parking_detection_processing.o(i.IsKey4Down) refers to stm32f10x_gpio.o(i.GPIO_ReadInputDataBit) for GPIO_ReadInputDataBit
    parking_detection_processing.o(i.IsKey5Down) refers to stm32f10x_gpio.o(i.GPIO_ReadInputDataBit) for GPIO_ReadInputDataBit
    parking_detection_processing.o(i.IsKey6Down) refers to stm32f10x_gpio.o(i.GPIO_ReadInputDataBit) for GPIO_ReadInputDataBit
    parking_detection_processing.o(i.IsKey7Down) refers to stm32f10x_gpio.o(i.GPIO_ReadInputDataBit) for GPIO_ReadInputDataBit
    parking_detection_processing.o(i.Parking_management) refers to _printf_percent.o(.ARM.Collect$$_printf_percent$$00000000) for _printf_percent
    parking_detection_processing.o(i.Parking_management) refers to _printf_d.o(.ARM.Collect$$_printf_percent$$00000009) for _printf_d
    parking_detection_processing.o(i.Parking_management) refers to _printf_dec.o(.text) for _printf_int_dec
    parking_detection_processing.o(i.Parking_management) refers to usart.o(i.USART_printf) for USART_printf
    parking_detection_processing.o(i.Parking_management) refers to lcd_basic_application.o(i.DrawSolidRectangle) for DrawSolidRectangle
    parking_detection_processing.o(i.Parking_management) refers to noretval__2sprintf.o(.text) for __2sprintf
    parking_detection_processing.o(i.Parking_management) refers to lcd_basic_application.o(i.Show_Str) for Show_Str
    parking_detection_processing.o(i.Parking_management) refers to parking_detection_processing.o(.bss) for .bss
    parking_detection_processing.o(i.Parking_management) refers to parking_detection_processing.o(.data) for .data
    parking_detection_processing.o(i.Parking_management) refers to task.o(.data) for Detained_vehicle
    parking_detection_processing.o(i.Parking_management) refers to lcd.o(.data) for POINT_COLOR
    parking_detection_processing.o(i.Parking_recommendation) refers to _printf_percent.o(.ARM.Collect$$_printf_percent$$00000000) for _printf_percent
    parking_detection_processing.o(i.Parking_recommendation) refers to _printf_d.o(.ARM.Collect$$_printf_percent$$00000009) for _printf_d
    parking_detection_processing.o(i.Parking_recommendation) refers to _printf_dec.o(.text) for _printf_int_dec
    parking_detection_processing.o(i.Parking_recommendation) refers to noretval__2sprintf.o(.text) for __2sprintf
    parking_detection_processing.o(i.Parking_recommendation) refers to lcd_basic_application.o(i.Show_Str) for Show_Str
    parking_detection_processing.o(i.Parking_recommendation) refers to parking_detection_processing.o(.data) for .data
    parking_detection_processing.o(i.UrgentDetect) refers to ipc.o(i.rt_mq_urgent) for rt_mq_urgent
    parking_detection_processing.o(i.UrgentDetect) refers to parking_detection_processing.o(.data) for .data
    parking_detection_processing.o(i.button_process_init) refers to timer.o(i.rt_timer_create) for rt_timer_create
    parking_detection_processing.o(i.button_process_init) refers to thread.o(i.rt_thread_create) for rt_thread_create
    parking_detection_processing.o(i.button_process_init) refers to thread.o(i.rt_thread_startup) for rt_thread_startup
    parking_detection_processing.o(i.button_process_init) refers to parking_detection_processing.o(i.In_ProcessSoftTimer_callback) for In_ProcessSoftTimer_callback
    parking_detection_processing.o(i.button_process_init) refers to main.o(.data) for In_ProcessSoftTimer
    parking_detection_processing.o(i.button_process_init) refers to parking_detection_processing.o(i.button_thread_entry) for button_thread_entry
    parking_detection_processing.o(i.button_thread_entry) refers to ipc.o(i.rt_mq_create) for rt_mq_create
    parking_detection_processing.o(i.button_thread_entry) refers to kservice.o(i.rt_kprintf) for rt_kprintf
    parking_detection_processing.o(i.button_thread_entry) refers to parking_detection_processing.o(i.ButtonInit) for ButtonInit
    parking_detection_processing.o(i.button_thread_entry) refers to ipc.o(i.rt_mq_recv) for rt_mq_recv
    parking_detection_processing.o(i.button_thread_entry) refers to ipc.o(i.rt_event_send) for rt_event_send
    parking_detection_processing.o(i.button_thread_entry) refers to stm32f10x_gpio.o(i.GPIO_ReadInputDataBit) for GPIO_ReadInputDataBit
    parking_detection_processing.o(i.button_thread_entry) refers to stm32f10x_tim.o(i.TIM_SetCompare4) for TIM_SetCompare4
    parking_detection_processing.o(i.button_thread_entry) refers to stm32f10x_tim.o(i.TIM_SetCompare3) for TIM_SetCompare3
    parking_detection_processing.o(i.button_thread_entry) refers to usart.o(i.USART_printf) for USART_printf
    parking_detection_processing.o(i.button_thread_entry) refers to lcd_basic_application.o(i.DrawSolidCircular) for DrawSolidCircular
    parking_detection_processing.o(i.button_thread_entry) refers to parking_detection_processing.o(.data) for .data
    parking_detection_processing.o(i.button_thread_entry) refers to main.o(.data) for Inspection_event
    parking_detection_processing.o(i.button_thread_entry) refers to ov7725_entrance.o(.data) for OV7725_entr_vsync
    parking_detection_processing.o(i.button_thread_entry) refers to ov7725_exit.o(.data) for OV7725_exit_vsync
    parking_detection_processing.o(.rti_fn.6) refers to parking_detection_processing.o(i.button_process_init) for button_process_init
    task.o(i.Event_thread_entry) refers to ipc.o(i.rt_event_recv) for rt_event_recv
    task.o(i.Event_thread_entry) refers to lcd_interface_design.o(i.Parking_information) for Parking_information
    task.o(i.Event_thread_entry) refers to parking_detection_processing.o(i.Parking_management) for Parking_management
    task.o(i.Event_thread_entry) refers to timer.o(i.rt_timer_start) for rt_timer_start
    task.o(i.Event_thread_entry) refers to main.o(.data) for Inspection_event
    task.o(i.Event_thread_entry) refers to parking_detection_processing.o(.data) for Update_P
    task.o(i.Event_thread_entry) refers to task.o(.data) for .data
    task.o(i.IWDG_thread_entry) refers to thread.o(i.rt_thread_mdelay) for rt_thread_mdelay
    task.o(i.IWDG_thread_entry) refers to iwdg.o(i.IWDG_Feed) for IWDG_Feed
    task.o(i.IWDG_thread_entry) refers to kservice.o(i.rt_kprintf) for rt_kprintf
    task.o(i.Inspection_ProcessSoftTimer_callback) refers to parking_detection_processing.o(i.Parking_management) for Parking_management
    task.o(i.TaskInit) refers to ipc.o(i.rt_event_create) for rt_event_create
    task.o(i.TaskInit) refers to ipc.o(i.rt_sem_create) for rt_sem_create
    task.o(i.TaskInit) refers to timer.o(i.rt_timer_create) for rt_timer_create
    task.o(i.TaskInit) refers to strcmpv7m.o(.text) for strcmp
    task.o(i.TaskInit) refers to thread.o(i.rt_thread_create) for rt_thread_create
    task.o(i.TaskInit) refers to thread.o(i.rt_thread_startup) for rt_thread_startup
    task.o(i.TaskInit) refers to main.o(.data) for Inspection_event
    task.o(i.TaskInit) refers to main.o(.data) for exit_recv_sem
    task.o(i.TaskInit) refers to main.o(.data) for entr_recv_sem
    task.o(i.TaskInit) refers to task.o(i.Inspection_ProcessSoftTimer_callback) for Inspection_ProcessSoftTimer_callback
    task.o(i.TaskInit) refers to task.o(.data) for .data
    task.o(i.Vehicle_count) refers to lcd_basic_application.o(i.Show_Str) for Show_Str
    task.o(i.Vehicle_count) refers to task.o(.data) for .data
    task.o(i.WIFI_thread_entry) refers to stm32f10x_gpio.o(i.GPIO_SetBits) for GPIO_SetBits
    task.o(i.WIFI_thread_entry) refers to esp8266.o(i.ESP8266_AT_Test) for ESP8266_AT_Test
    task.o(i.WIFI_thread_entry) refers to esp8266.o(i.ESP8266_Net_Mode_Choose) for ESP8266_Net_Mode_Choose
    task.o(i.WIFI_thread_entry) refers to esp8266.o(i.ESP8266_JoinAP) for ESP8266_JoinAP
    task.o(i.WIFI_thread_entry) refers to esp8266.o(i.ESP8266_Enable_MultipleId) for ESP8266_Enable_MultipleId
    task.o(i.WIFI_thread_entry) refers to esp8266.o(i.ESP8266_Link_Server) for ESP8266_Link_Server
    task.o(i.WIFI_thread_entry) refers to esp8266.o(i.ESP8266_UnvarnishSend) for ESP8266_UnvarnishSend
    task.o(i.WIFI_thread_entry) refers to lcd_interface_design.o(i.Interface_init) for Interface_init
    task.o(i.WIFI_thread_entry) refers to lcd_basic_application.o(i.Show_Str) for Show_Str
    task.o(i.WIFI_thread_entry) refers to task.o(i.Vehicle_count) for Vehicle_count
    task.o(i.WIFI_thread_entry) refers to timer.o(i.rt_timer_start) for rt_timer_start
    task.o(i.WIFI_thread_entry) refers to task.o(.data) for .data
    task.o(i.WIFI_thread_entry) refers to main.o(.data) for In_ProcessSoftTimer
    task.o(i.entr_thread_entry) refers to ipc.o(i.rt_sem_take) for rt_sem_take
    task.o(i.entr_thread_entry) refers to timer.o(i.rt_timer_stop) for rt_timer_stop
    task.o(i.entr_thread_entry) refers to license_plate_recognition.o(i.Number_recognition_LP) for Number_recognition_LP
    task.o(i.entr_thread_entry) refers to stm32f10x_gpio.o(i.GPIO_ReadInputDataBit) for GPIO_ReadInputDataBit
    task.o(i.entr_thread_entry) refers to lcd_basic_application.o(i.Show_Str) for Show_Str
    task.o(i.entr_thread_entry) refers to license_plate_recognition.o(i.Entrance_LP_communication) for Entrance_LP_communication
    task.o(i.entr_thread_entry) refers to parking_detection_processing.o(i.Parking_recommendation) for Parking_recommendation
    task.o(i.entr_thread_entry) refers to thread.o(i.rt_thread_mdelay) for rt_thread_mdelay
    task.o(i.entr_thread_entry) refers to stm32f10x_tim.o(i.TIM_SetCompare4) for TIM_SetCompare4
    task.o(i.entr_thread_entry) refers to task.o(i.Vehicle_count) for Vehicle_count
    task.o(i.entr_thread_entry) refers to main.o(.data) for entr_recv_sem
    task.o(i.entr_thread_entry) refers to task.o(.data) for .data
    task.o(i.exit_thread_entry) refers to ipc.o(i.rt_sem_take) for rt_sem_take
    task.o(i.exit_thread_entry) refers to timer.o(i.rt_timer_stop) for rt_timer_stop
    task.o(i.exit_thread_entry) refers to license_plate_recognition.o(i.Number_recognition_LP) for Number_recognition_LP
    task.o(i.exit_thread_entry) refers to stm32f10x_gpio.o(i.GPIO_ReadInputDataBit) for GPIO_ReadInputDataBit
    task.o(i.exit_thread_entry) refers to license_plate_recognition.o(i.Exit_LP_communication) for Exit_LP_communication
    task.o(i.exit_thread_entry) refers to thread.o(i.rt_thread_mdelay) for rt_thread_mdelay
    task.o(i.exit_thread_entry) refers to stm32f10x_tim.o(i.TIM_SetCompare3) for TIM_SetCompare3
    task.o(i.exit_thread_entry) refers to task.o(i.Vehicle_count) for Vehicle_count
    task.o(i.exit_thread_entry) refers to main.o(.data) for exit_recv_sem
    task.o(i.exit_thread_entry) refers to task.o(.data) for .data
    task.o(.data) refers to task.o(.conststring) for .conststring
    task.o(.data) refers to task.o(i.IWDG_thread_entry) for IWDG_thread_entry
    task.o(.data) refers to task.o(i.Event_thread_entry) for Event_thread_entry
    task.o(.data) refers to task.o(i.exit_thread_entry) for exit_thread_entry
    task.o(.data) refers to task.o(i.entr_thread_entry) for entr_thread_entry
    task.o(.data) refers to task.o(i.WIFI_thread_entry) for WIFI_thread_entry
    main.o(i.main) refers to task.o(i.TaskInit) for TaskInit
    board.o(i.SysTick_Handler) refers to irq.o(i.rt_interrupt_enter) for rt_interrupt_enter
    board.o(i.SysTick_Handler) refers to clock.o(i.rt_tick_increase) for rt_tick_increase
    board.o(i.SysTick_Handler) refers to irq.o(i.rt_interrupt_leave) for rt_interrupt_leave
    board.o(i.rt_heap_begin_get) refers to board.o(.bss) for .bss
    board.o(i.rt_heap_end_get) refers to board.o(.bss) for .bss
    board.o(i.rt_hw_board_init) refers to system.o(i.SysInit) for SysInit
    board.o(i.rt_hw_board_init) refers to components.o(i.rt_components_board_init) for rt_components_board_init
    board.o(i.rt_hw_board_init) refers to board.o(i.rt_heap_end_get) for rt_heap_end_get
    board.o(i.rt_hw_board_init) refers to board.o(i.rt_heap_begin_get) for rt_heap_begin_get
    board.o(i.rt_hw_board_init) refers to mem.o(i.rt_system_heap_init) for rt_system_heap_init
    system.o(i.Camera_settings) refers to ov7725_exit.o(i.OV7725_exit_Init) for OV7725_exit_Init
    system.o(i.Camera_settings) refers to ov7725_entrance.o(i.OV7725_entr_Init) for OV7725_entr_Init
    system.o(i.Camera_settings) refers to ov7725_exit.o(i.OV7725_exit_Light_Mode) for OV7725_exit_Light_Mode
    system.o(i.Camera_settings) refers to ov7725_exit.o(i.OV7725_exit_Color_Saturation) for OV7725_exit_Color_Saturation
    system.o(i.Camera_settings) refers to ov7725_exit.o(i.OV7725_exit_Brightness) for OV7725_exit_Brightness
    system.o(i.Camera_settings) refers to ov7725_exit.o(i.OV7725_exit_Contrast) for OV7725_exit_Contrast
    system.o(i.Camera_settings) refers to ov7725_exit.o(i.OV7725_exit_Special_Effect) for OV7725_exit_Special_Effect
    system.o(i.Camera_settings) refers to ov7725_entrance.o(i.OV7725_entr_Light_Mode) for OV7725_entr_Light_Mode
    system.o(i.Camera_settings) refers to ov7725_entrance.o(i.OV7725_entr_Color_Saturation) for OV7725_entr_Color_Saturation
    system.o(i.Camera_settings) refers to ov7725_entrance.o(i.OV7725_entr_Brightness) for OV7725_entr_Brightness
    system.o(i.Camera_settings) refers to ov7725_entrance.o(i.OV7725_entr_Contrast) for OV7725_entr_Contrast
    system.o(i.Camera_settings) refers to ov7725_entrance.o(i.OV7725_entr_Special_Effect) for OV7725_entr_Special_Effect
    system.o(i.Camera_settings) refers to ov7725_exit.o(i.OV7725_exit_Window_Set) for OV7725_exit_Window_Set
    system.o(i.Camera_settings) refers to ov7725_entrance.o(i.OV7725_entr_Window_Set) for OV7725_entr_Window_Set
    system.o(i.CpuInit) refers to misc.o(i.NVIC_PriorityGroupConfig) for NVIC_PriorityGroupConfig
    system.o(i.SysInit) refers to misc.o(i.NVIC_PriorityGroupConfig) for NVIC_PriorityGroupConfig
    system.o(i.SysInit) refers to systick.o(i.SysTickInit) for SysTickInit
    system.o(i.SysInit) refers to usart.o(i.UsartInit) for UsartInit
    system.o(i.SysInit) refers to esp8266.o(i.ESP8266_Init) for ESP8266_Init
    system.o(i.SysInit) refers to pwm.o(i.GENERAL_TIM_Init) for GENERAL_TIM_Init
    system.o(i.SysInit) refers to ov7725_exit.o(i.OV7725_exit_GPIO_Config) for OV7725_exit_GPIO_Config
    system.o(i.SysInit) refers to ov7725_entrance.o(i.OV7725_entr_GPIO_Config) for OV7725_entr_GPIO_Config
    system.o(i.SysInit) refers to system.o(i.Camera_settings) for Camera_settings
    system.o(i.SysInit) refers to iwdg.o(i.IWDG_Config) for IWDG_Config
    __2sprintf.o(.text) refers to _printf_char_common.o(.text) for _printf_char_common
    __2sprintf.o(.text) refers to _sputc.o(.text) for _sputc
    noretval__2sprintf.o(.text) refers to _printf_char_common.o(.text) for _printf_char_common
    noretval__2sprintf.o(.text) refers to _sputc.o(.text) for _sputc
    __printf.o(.text) refers to _printf_percent.o(.ARM.Collect$$_printf_percent$$00000000) for _printf_percent
    _printf_str.o(.text) refers (Special) to _printf_char.o(.text) for _printf_cs_common
    _printf_dec.o(.text) refers to _printf_intcommon.o(.text) for _printf_int_common
    __printf_flags.o(.text) refers to _printf_percent.o(.ARM.Collect$$_printf_percent$$00000000) for _printf_percent
    __printf_flags.o(.text) refers to __printf_flags.o(.constdata) for .constdata
    __printf_ss.o(.text) refers to _printf_percent.o(.ARM.Collect$$_printf_percent$$00000000) for _printf_percent
    __printf_flags_ss.o(.text) refers to _printf_percent.o(.ARM.Collect$$_printf_percent$$00000000) for _printf_percent
    __printf_flags_ss.o(.text) refers to __printf_flags_ss.o(.constdata) for .constdata
    __printf_wp.o(.text) refers to __printf_wp.o(i._is_digit) for _is_digit
    __printf_wp.o(.text) refers to _printf_percent.o(.ARM.Collect$$_printf_percent$$00000000) for _printf_percent
    __printf_flags_wp.o(.text) refers to __printf_wp.o(i._is_digit) for _is_digit
    __printf_flags_wp.o(.text) refers to _printf_percent.o(.ARM.Collect$$_printf_percent$$00000000) for _printf_percent
    __printf_flags_wp.o(.text) refers to __printf_flags_wp.o(.constdata) for .constdata
    __printf_ss_wp.o(.text) refers to __printf_wp.o(i._is_digit) for _is_digit
    __printf_ss_wp.o(.text) refers to _printf_percent.o(.ARM.Collect$$_printf_percent$$00000000) for _printf_percent
    __printf_flags_ss_wp.o(.text) refers to __printf_wp.o(i._is_digit) for _is_digit
    __printf_flags_ss_wp.o(.text) refers to _printf_percent.o(.ARM.Collect$$_printf_percent$$00000000) for _printf_percent
    __printf_flags_ss_wp.o(.text) refers to __printf_flags_ss_wp.o(.constdata) for .constdata
    _printf_c.o(.ARM.Collect$$_printf_percent$$00000013) refers (Weak) to _printf_char.o(.text) for _printf_char
    _printf_s.o(.ARM.Collect$$_printf_percent$$00000014) refers (Weak) to _printf_char.o(.text) for _printf_string
    _printf_d.o(.ARM.Collect$$_printf_percent$$00000009) refers (Weak) to _printf_dec.o(.text) for _printf_int_dec
    _printf_percent.o(.ARM.Collect$$_printf_percent$$00000000) refers (Special) to _printf_percent_end.o(.ARM.Collect$$_printf_percent$$00000017) for _printf_percent_end
    rt_memclr.o(.text) refers to rt_memclr_w.o(.text) for _memset_w
    strncpy.o(.text) refers to rt_memclr.o(.text) for __aeabi_memclr
    __main.o(!!!main) refers to __rtentry.o(.ARM.Collect$$rtentry$$00000000) for __rt_entry
    daddsub_clz.o(x$fpl$dadd) refers (Special) to usenofp.o(x$fpl$usenofp) for __I$use$fp
    daddsub_clz.o(x$fpl$dadd) refers to daddsub_clz.o(x$fpl$dsub) for _dsub1
    daddsub_clz.o(x$fpl$dadd) refers to dretinf.o(x$fpl$dretinf) for __fpl_dretinf
    daddsub_clz.o(x$fpl$dadd) refers to dnaninf.o(x$fpl$dnaninf) for __fpl_dnaninf
    daddsub_clz.o(x$fpl$drsb) refers (Special) to usenofp.o(x$fpl$usenofp) for __I$use$fp
    daddsub_clz.o(x$fpl$drsb) refers to daddsub_clz.o(x$fpl$dadd) for _dadd1
    daddsub_clz.o(x$fpl$drsb) refers to daddsub_clz.o(x$fpl$dsub) for _dsub1
    daddsub_clz.o(x$fpl$dsub) refers (Special) to usenofp.o(x$fpl$usenofp) for __I$use$fp
    daddsub_clz.o(x$fpl$dsub) refers to daddsub_clz.o(x$fpl$dadd) for _dadd1
    daddsub_clz.o(x$fpl$dsub) refers to dnaninf.o(x$fpl$dnaninf) for __fpl_dnaninf
    dfixu.o(x$fpl$dfixu) refers (Special) to usenofp.o(x$fpl$usenofp) for __I$use$fp
    dfixu.o(x$fpl$dfixu) refers to dnaninf.o(x$fpl$dnaninf) for __fpl_dnaninf
    dfixu.o(x$fpl$dfixur) refers (Special) to usenofp.o(x$fpl$usenofp) for __I$use$fp
    dfixu.o(x$fpl$dfixur) refers to dnaninf.o(x$fpl$dnaninf) for __fpl_dnaninf
    dflt_clz.o(x$fpl$dfltu) refers (Special) to usenofp.o(x$fpl$usenofp) for __I$use$fp
    dflt_clz.o(x$fpl$dflt) refers (Special) to usenofp.o(x$fpl$usenofp) for __I$use$fp
    dflt_clz.o(x$fpl$dfltn) refers (Special) to usenofp.o(x$fpl$usenofp) for __I$use$fp
    dmul.o(x$fpl$dmul) refers (Special) to usenofp.o(x$fpl$usenofp) for __I$use$fp
    dmul.o(x$fpl$dmul) refers to dretinf.o(x$fpl$dretinf) for __fpl_dretinf
    dmul.o(x$fpl$dmul) refers to dnaninf.o(x$fpl$dnaninf) for __fpl_dnaninf
    __rtentry.o(.ARM.Collect$$rtentry$$00000000) refers (Special) to __rtentry2.o(.ARM.Collect$$rtentry$$0000000A) for __rt_entry_li
    __rtentry.o(.ARM.Collect$$rtentry$$00000000) refers (Special) to __rtentry2.o(.ARM.Collect$$rtentry$$0000000D) for __rt_entry_main
    __rtentry.o(.ARM.Collect$$rtentry$$00000000) refers (Special) to __rtentry2.o(.ARM.Collect$$rtentry$$0000000C) for __rt_entry_postli_1
    __rtentry.o(.ARM.Collect$$rtentry$$00000000) refers (Special) to __rtentry2.o(.ARM.Collect$$rtentry$$00000009) for __rt_entry_postsh_1
    __rtentry.o(.ARM.Collect$$rtentry$$00000000) refers (Special) to __rtentry2.o(.ARM.Collect$$rtentry$$00000002) for __rt_entry_presh_1
    __rtentry.o(.ARM.Collect$$rtentry$$00000000) refers (Special) to __rtentry4.o(.ARM.Collect$$rtentry$$00000004) for __rt_entry_sh
    _printf_char_common.o(.text) refers to __printf.o(.text) for __printf
    _printf_char.o(.text) refers (Weak) to _printf_str.o(.text) for _printf_str
    dnaninf.o(x$fpl$dnaninf) refers (Special) to usenofp.o(x$fpl$usenofp) for __I$use$fp
    dretinf.o(x$fpl$dretinf) refers (Special) to usenofp.o(x$fpl$usenofp) for __I$use$fp
    __rtentry2.o(.ARM.Collect$$rtentry$$00000008) refers to boardinit2.o(.text) for _platform_post_stackheap_init
    __rtentry2.o(.ARM.Collect$$rtentry$$0000000A) refers to libinit.o(.ARM.Collect$$libinit$$00000000) for __rt_lib_init
    __rtentry2.o(.ARM.Collect$$rtentry$$0000000B) refers to boardinit3.o(.text) for _platform_post_lib_init
    __rtentry2.o(.ARM.Collect$$rtentry$$0000000D) refers to components.o(i.$Sub$$main) for main
    __rtentry2.o(.ARM.Collect$$rtentry$$0000000D) refers to exit.o(.text) for exit
    __rtentry2.o(.ARM.exidx) refers to __rtentry2.o(.ARM.Collect$$rtentry$$00000001) for .ARM.Collect$$rtentry$$00000001
    __rtentry2.o(.ARM.exidx) refers to __rtentry2.o(.ARM.Collect$$rtentry$$00000008) for .ARM.Collect$$rtentry$$00000008
    __rtentry2.o(.ARM.exidx) refers to __rtentry2.o(.ARM.Collect$$rtentry$$0000000A) for .ARM.Collect$$rtentry$$0000000A
    __rtentry2.o(.ARM.exidx) refers to __rtentry2.o(.ARM.Collect$$rtentry$$0000000B) for .ARM.Collect$$rtentry$$0000000B
    __rtentry2.o(.ARM.exidx) refers to __rtentry2.o(.ARM.Collect$$rtentry$$0000000D) for .ARM.Collect$$rtentry$$0000000D
    __rtentry4.o(.ARM.Collect$$rtentry$$00000004) refers to sys_stackheap_outer.o(.text) for __user_setup_stackheap
    __rtentry4.o(.ARM.exidx) refers to __rtentry4.o(.ARM.Collect$$rtentry$$00000004) for .ARM.Collect$$rtentry$$00000004
    sys_stackheap_outer.o(.text) refers to libspace.o(.text) for __user_perproc_libspace
    sys_stackheap_outer.o(.text) refers to startup_stm32f10x_hd.o(.text) for __user_initial_stackheap
    exit.o(.text) refers to rtexit.o(.ARM.Collect$$rtexit$$00000000) for __rt_exit
    libinit.o(.ARM.Collect$$libinit$$00000000) refers (Special) to libinit2.o(.ARM.Collect$$libinit$$0000002E) for __rt_lib_init_alloca_1
    libinit.o(.ARM.Collect$$libinit$$00000000) refers (Special) to libinit2.o(.ARM.Collect$$libinit$$0000002C) for __rt_lib_init_argv_1
    libinit.o(.ARM.Collect$$libinit$$00000000) refers (Special) to libinit2.o(.ARM.Collect$$libinit$$0000001B) for __rt_lib_init_atexit_1
    libinit.o(.ARM.Collect$$libinit$$00000000) refers (Special) to libinit2.o(.ARM.Collect$$libinit$$00000021) for __rt_lib_init_clock_1
    libinit.o(.ARM.Collect$$libinit$$00000000) refers (Special) to libinit2.o(.ARM.Collect$$libinit$$00000032) for __rt_lib_init_cpp_1
    libinit.o(.ARM.Collect$$libinit$$00000000) refers (Special) to libinit2.o(.ARM.Collect$$libinit$$00000030) for __rt_lib_init_exceptions_1
    libinit.o(.ARM.Collect$$libinit$$00000000) refers (Special) to libinit2.o(.ARM.Collect$$libinit$$00000002) for __rt_lib_init_fp_1
    libinit.o(.ARM.Collect$$libinit$$00000000) refers (Special) to libinit2.o(.ARM.Collect$$libinit$$0000001F) for __rt_lib_init_fp_trap_1
    libinit.o(.ARM.Collect$$libinit$$00000000) refers (Special) to libinit2.o(.ARM.Collect$$libinit$$00000023) for __rt_lib_init_getenv_1
    libinit.o(.ARM.Collect$$libinit$$00000000) refers (Special) to libinit2.o(.ARM.Collect$$libinit$$0000000A) for __rt_lib_init_heap_1
    libinit.o(.ARM.Collect$$libinit$$00000000) refers (Special) to libinit2.o(.ARM.Collect$$libinit$$00000011) for __rt_lib_init_lc_collate_1
    libinit.o(.ARM.Collect$$libinit$$00000000) refers (Special) to libinit2.o(.ARM.Collect$$libinit$$00000013) for __rt_lib_init_lc_ctype_1
    libinit.o(.ARM.Collect$$libinit$$00000000) refers (Special) to libinit2.o(.ARM.Collect$$libinit$$00000015) for __rt_lib_init_lc_monetary_1
    libinit.o(.ARM.Collect$$libinit$$00000000) refers (Special) to libinit2.o(.ARM.Collect$$libinit$$00000017) for __rt_lib_init_lc_numeric_1
    libinit.o(.ARM.Collect$$libinit$$00000000) refers (Special) to libinit2.o(.ARM.Collect$$libinit$$00000019) for __rt_lib_init_lc_time_1
    libinit.o(.ARM.Collect$$libinit$$00000000) refers (Special) to libinit2.o(.ARM.Collect$$libinit$$00000004) for __rt_lib_init_preinit_1
    libinit.o(.ARM.Collect$$libinit$$00000000) refers (Special) to libinit2.o(.ARM.Collect$$libinit$$0000000E) for __rt_lib_init_rand_1
    libinit.o(.ARM.Collect$$libinit$$00000000) refers (Special) to libinit2.o(.ARM.Collect$$libinit$$00000033) for __rt_lib_init_return
    libinit.o(.ARM.Collect$$libinit$$00000000) refers (Special) to libinit2.o(.ARM.Collect$$libinit$$0000001D) for __rt_lib_init_signal_1
    libinit.o(.ARM.Collect$$libinit$$00000000) refers (Special) to libinit2.o(.ARM.Collect$$libinit$$00000025) for __rt_lib_init_stdio_1
    libinit.o(.ARM.Collect$$libinit$$00000000) refers (Special) to libinit2.o(.ARM.Collect$$libinit$$0000000C) for __rt_lib_init_user_alloc_1
    libspace.o(.text) refers to libspace.o(.bss) for __libspace_start
    rtexit.o(.ARM.Collect$$rtexit$$00000000) refers (Special) to rtexit2.o(.ARM.Collect$$rtexit$$00000004) for __rt_exit_exit
    rtexit.o(.ARM.Collect$$rtexit$$00000000) refers (Special) to rtexit2.o(.ARM.Collect$$rtexit$$00000003) for __rt_exit_ls
    rtexit.o(.ARM.Collect$$rtexit$$00000000) refers (Special) to rtexit2.o(.ARM.Collect$$rtexit$$00000002) for __rt_exit_prels_1
    rtexit.o(.ARM.exidx) refers (Special) to rtexit2.o(.ARM.Collect$$rtexit$$00000004) for __rt_exit_exit
    rtexit.o(.ARM.exidx) refers (Special) to rtexit2.o(.ARM.Collect$$rtexit$$00000003) for __rt_exit_ls
    rtexit.o(.ARM.exidx) refers (Special) to rtexit2.o(.ARM.Collect$$rtexit$$00000002) for __rt_exit_prels_1
    rtexit.o(.ARM.exidx) refers to rtexit.o(.ARM.Collect$$rtexit$$00000000) for .ARM.Collect$$rtexit$$00000000
    libinit2.o(.ARM.Collect$$libinit$$00000010) refers to libinit2.o(.ARM.Collect$$libinit$$0000000F) for .ARM.Collect$$libinit$$0000000F
    libinit2.o(.ARM.Collect$$libinit$$00000012) refers to libinit2.o(.ARM.Collect$$libinit$$0000000F) for .ARM.Collect$$libinit$$0000000F
    libinit2.o(.ARM.Collect$$libinit$$00000014) refers to libinit2.o(.ARM.Collect$$libinit$$0000000F) for .ARM.Collect$$libinit$$0000000F
    libinit2.o(.ARM.Collect$$libinit$$00000016) refers to libinit2.o(.ARM.Collect$$libinit$$0000000F) for .ARM.Collect$$libinit$$0000000F
    libinit2.o(.ARM.Collect$$libinit$$00000018) refers to libinit2.o(.ARM.Collect$$libinit$$0000000F) for .ARM.Collect$$libinit$$0000000F
    libinit2.o(.ARM.Collect$$libinit$$00000026) refers to argv_veneer.o(.emb_text) for __ARM_argv_veneer
    libinit2.o(.ARM.Collect$$libinit$$00000027) refers to argv_veneer.o(.emb_text) for __ARM_argv_veneer
    rtexit2.o(.ARM.Collect$$rtexit$$00000003) refers to libshutdown.o(.ARM.Collect$$libshutdown$$00000000) for __rt_lib_shutdown
    rtexit2.o(.ARM.Collect$$rtexit$$00000004) refers to sys_exit.o(.text) for _sys_exit
    rtexit2.o(.ARM.exidx) refers to rtexit2.o(.ARM.Collect$$rtexit$$00000001) for .ARM.Collect$$rtexit$$00000001
    rtexit2.o(.ARM.exidx) refers to rtexit2.o(.ARM.Collect$$rtexit$$00000003) for .ARM.Collect$$rtexit$$00000003
    rtexit2.o(.ARM.exidx) refers to rtexit2.o(.ARM.Collect$$rtexit$$00000004) for .ARM.Collect$$rtexit$$00000004
    argv_veneer.o(.emb_text) refers to no_argv.o(.text) for __ARM_get_argv
    sys_exit.o(.text) refers (Special) to use_no_semi.o(.text) for __I$use$semihosting
    sys_exit.o(.text) refers (Special) to indicate_semi.o(.text) for __semihosting_library_function
    _get_argv_nomalloc.o(.text) refers (Special) to hrguard.o(.text) for __heap_region$guard
    _get_argv_nomalloc.o(.text) refers to defsig_rtmem_outer.o(.text) for __rt_SIGRTMEM
    _get_argv_nomalloc.o(.text) refers to sys_command.o(.text) for _sys_command_string
    libshutdown.o(.ARM.Collect$$libshutdown$$00000000) refers (Special) to libshutdown2.o(.ARM.Collect$$libshutdown$$00000004) for __rt_lib_shutdown_cpp_1
    libshutdown.o(.ARM.Collect$$libshutdown$$00000000) refers (Special) to libshutdown2.o(.ARM.Collect$$libshutdown$$00000002) for __rt_lib_shutdown_fini_1
    libshutdown.o(.ARM.Collect$$libshutdown$$00000000) refers (Special) to libshutdown2.o(.ARM.Collect$$libshutdown$$00000009) for __rt_lib_shutdown_fp_trap_1
    libshutdown.o(.ARM.Collect$$libshutdown$$00000000) refers (Special) to libshutdown2.o(.ARM.Collect$$libshutdown$$00000011) for __rt_lib_shutdown_heap_1
    libshutdown.o(.ARM.Collect$$libshutdown$$00000000) refers (Special) to libshutdown2.o(.ARM.Collect$$libshutdown$$00000012) for __rt_lib_shutdown_return
    libshutdown.o(.ARM.Collect$$libshutdown$$00000000) refers (Special) to libshutdown2.o(.ARM.Collect$$libshutdown$$0000000C) for __rt_lib_shutdown_signal_1
    libshutdown.o(.ARM.Collect$$libshutdown$$00000000) refers (Special) to libshutdown2.o(.ARM.Collect$$libshutdown$$00000006) for __rt_lib_shutdown_stdio_1
    libshutdown.o(.ARM.Collect$$libshutdown$$00000000) refers (Special) to libshutdown2.o(.ARM.Collect$$libshutdown$$0000000E) for __rt_lib_shutdown_user_alloc_1
    sys_command.o(.text) refers (Special) to use_no_semi.o(.text) for __I$use$semihosting
    sys_command.o(.text) refers (Special) to indicate_semi.o(.text) for __semihosting_library_function
    defsig_rtmem_outer.o(.text) refers to defsig_rtmem_inner.o(.text) for __rt_SIGRTMEM_inner
    defsig_rtmem_outer.o(.text) refers to defsig_exit.o(.text) for __sig_exit
    defsig_rtmem_formal.o(.text) refers to rt_raise.o(.text) for __rt_raise
    rt_raise.o(.text) refers to __raise.o(.text) for __raise
    rt_raise.o(.text) refers to sys_exit.o(.text) for _sys_exit
    defsig_exit.o(.text) refers to sys_exit.o(.text) for _sys_exit
    defsig_rtmem_inner.o(.text) refers to defsig_general.o(.text) for __default_signal_display
    __raise.o(.text) refers to defsig.o(CL$$defsig) for __default_signal_handler
    defsig_general.o(.text) refers to sys_wrch.o(.text) for _ttywrch
    sys_wrch.o(.text) refers (Special) to use_no_semi.o(.text) for __I$use$semihosting
    sys_wrch.o(.text) refers (Special) to indicate_semi.o(.text) for __semihosting_library_function
    defsig.o(CL$$defsig) refers to defsig_rtmem_inner.o(.text) for __rt_SIGRTMEM_inner
    defsig_abrt_inner.o(.text) refers to defsig_general.o(.text) for __default_signal_display
    defsig_fpe_inner.o(.text) refers to defsig_general.o(.text) for __default_signal_display
    defsig_rtred_inner.o(.text) refers to defsig_general.o(.text) for __default_signal_display
    defsig_stak_inner.o(.text) refers to defsig_general.o(.text) for __default_signal_display
    defsig_pvfn_inner.o(.text) refers to defsig_general.o(.text) for __default_signal_display
    defsig_cppl_inner.o(.text) refers to defsig_general.o(.text) for __default_signal_display
    defsig_segv_inner.o(.text) refers to defsig_general.o(.text) for __default_signal_display
    defsig_other.o(.text) refers to defsig_general.o(.text) for __default_signal_display


==============================================================================

Removing Unused input sections from the image.

    Removing core_cm3.o(.emb_text), (32 bytes).
    Removing system_stm32f10x.o(i.SystemCoreClockUpdate), (104 bytes).
    Removing misc.o(i.NVIC_SetVectorTable), (20 bytes).
    Removing misc.o(i.NVIC_SystemLPConfig), (24 bytes).
    Removing misc.o(i.SysTick_CLKSourceConfig), (24 bytes).
    Removing stm32f10x_adc.o(i.ADC_AnalogWatchdogCmd), (16 bytes).
    Removing stm32f10x_adc.o(i.ADC_AnalogWatchdogSingleChannelConfig), (12 bytes).
    Removing stm32f10x_adc.o(i.ADC_AnalogWatchdogThresholdsConfig), (6 bytes).
    Removing stm32f10x_adc.o(i.ADC_AutoInjectedConvCmd), (20 bytes).
    Removing stm32f10x_adc.o(i.ADC_ClearFlag), (6 bytes).
    Removing stm32f10x_adc.o(i.ADC_ClearITPendingBit), (8 bytes).
    Removing stm32f10x_adc.o(i.ADC_Cmd), (20 bytes).
    Removing stm32f10x_adc.o(i.ADC_DMACmd), (20 bytes).
    Removing stm32f10x_adc.o(i.ADC_DeInit), (68 bytes).
    Removing stm32f10x_adc.o(i.ADC_DiscModeChannelCountConfig), (16 bytes).
    Removing stm32f10x_adc.o(i.ADC_DiscModeCmd), (20 bytes).
    Removing stm32f10x_adc.o(i.ADC_ExternalTrigConvCmd), (20 bytes).
    Removing stm32f10x_adc.o(i.ADC_ExternalTrigInjectedConvCmd), (20 bytes).
    Removing stm32f10x_adc.o(i.ADC_ExternalTrigInjectedConvConfig), (12 bytes).
    Removing stm32f10x_adc.o(i.ADC_GetCalibrationStatus), (14 bytes).
    Removing stm32f10x_adc.o(i.ADC_GetConversionValue), (6 bytes).
    Removing stm32f10x_adc.o(i.ADC_GetDualModeConversionValue), (12 bytes).
    Removing stm32f10x_adc.o(i.ADC_GetFlagStatus), (14 bytes).
    Removing stm32f10x_adc.o(i.ADC_GetITStatus), (28 bytes).
    Removing stm32f10x_adc.o(i.ADC_GetInjectedConversionValue), (14 bytes).
    Removing stm32f10x_adc.o(i.ADC_GetResetCalibrationStatus), (14 bytes).
    Removing stm32f10x_adc.o(i.ADC_GetSoftwareStartConvStatus), (14 bytes).
    Removing stm32f10x_adc.o(i.ADC_GetSoftwareStartInjectedConvCmdStatus), (14 bytes).
    Removing stm32f10x_adc.o(i.ADC_ITConfig), (18 bytes).
    Removing stm32f10x_adc.o(i.ADC_Init), (72 bytes).
    Removing stm32f10x_adc.o(i.ADC_InjectedChannelConfig), (74 bytes).
    Removing stm32f10x_adc.o(i.ADC_InjectedDiscModeCmd), (20 bytes).
    Removing stm32f10x_adc.o(i.ADC_InjectedSequencerLengthConfig), (16 bytes).
    Removing stm32f10x_adc.o(i.ADC_RegularChannelConfig), (116 bytes).
    Removing stm32f10x_adc.o(i.ADC_ResetCalibration), (10 bytes).
    Removing stm32f10x_adc.o(i.ADC_SetInjectedOffset), (10 bytes).
    Removing stm32f10x_adc.o(i.ADC_SoftwareStartConvCmd), (20 bytes).
    Removing stm32f10x_adc.o(i.ADC_SoftwareStartInjectedConvCmd), (20 bytes).
    Removing stm32f10x_adc.o(i.ADC_StartCalibration), (10 bytes).
    Removing stm32f10x_adc.o(i.ADC_StructInit), (18 bytes).
    Removing stm32f10x_adc.o(i.ADC_TempSensorVrefintCmd), (28 bytes).
    Removing stm32f10x_bkp.o(i.BKP_ClearFlag), (16 bytes).
    Removing stm32f10x_bkp.o(i.BKP_ClearITPendingBit), (16 bytes).
    Removing stm32f10x_bkp.o(i.BKP_DeInit), (18 bytes).
    Removing stm32f10x_bkp.o(i.BKP_GetFlagStatus), (12 bytes).
    Removing stm32f10x_bkp.o(i.BKP_GetITStatus), (12 bytes).
    Removing stm32f10x_bkp.o(i.BKP_ITConfig), (12 bytes).
    Removing stm32f10x_bkp.o(i.BKP_RTCOutputConfig), (20 bytes).
    Removing stm32f10x_bkp.o(i.BKP_ReadBackupRegister), (16 bytes).
    Removing stm32f10x_bkp.o(i.BKP_SetRTCCalibrationValue), (20 bytes).
    Removing stm32f10x_bkp.o(i.BKP_TamperPinCmd), (12 bytes).
    Removing stm32f10x_bkp.o(i.BKP_TamperPinLevelConfig), (12 bytes).
    Removing stm32f10x_bkp.o(i.BKP_WriteBackupRegister), (16 bytes).
    Removing stm32f10x_can.o(i.CAN_CancelTransmit), (36 bytes).
    Removing stm32f10x_can.o(i.CAN_ClearFlag), (48 bytes).
    Removing stm32f10x_can.o(i.CAN_ClearITPendingBit), (120 bytes).
    Removing stm32f10x_can.o(i.CAN_DBGFreeze), (20 bytes).
    Removing stm32f10x_can.o(i.CAN_DeInit), (44 bytes).
    Removing stm32f10x_can.o(i.CAN_FIFORelease), (22 bytes).
    Removing stm32f10x_can.o(i.CAN_FilterInit), (204 bytes).
    Removing stm32f10x_can.o(i.CAN_GetFlagStatus), (52 bytes).
    Removing stm32f10x_can.o(i.CAN_GetITStatus), (168 bytes).
    Removing stm32f10x_can.o(i.CAN_GetLSBTransmitErrorCounter), (8 bytes).
    Removing stm32f10x_can.o(i.CAN_GetLastErrorCode), (10 bytes).
    Removing stm32f10x_can.o(i.CAN_GetReceiveErrorCounter), (6 bytes).
    Removing stm32f10x_can.o(i.CAN_ITConfig), (16 bytes).
    Removing stm32f10x_can.o(i.CAN_Init), (232 bytes).
    Removing stm32f10x_can.o(i.CAN_MessagePending), (22 bytes).
    Removing stm32f10x_can.o(i.CAN_OperatingModeRequest), (140 bytes).
    Removing stm32f10x_can.o(i.CAN_Receive), (142 bytes).
    Removing stm32f10x_can.o(i.CAN_SlaveStartBank), (44 bytes).
    Removing stm32f10x_can.o(i.CAN_Sleep), (30 bytes).
    Removing stm32f10x_can.o(i.CAN_StructInit), (32 bytes).
    Removing stm32f10x_can.o(i.CAN_TTComModeCmd), (90 bytes).
    Removing stm32f10x_can.o(i.CAN_Transmit), (190 bytes).
    Removing stm32f10x_can.o(i.CAN_TransmitStatus), (108 bytes).
    Removing stm32f10x_can.o(i.CAN_WakeUp), (40 bytes).
    Removing stm32f10x_can.o(i.CheckITStatus), (12 bytes).
    Removing stm32f10x_cec.o(i.CEC_ClearFlag), (32 bytes).
    Removing stm32f10x_cec.o(i.CEC_ClearITPendingBit), (32 bytes).
    Removing stm32f10x_cec.o(i.CEC_Cmd), (28 bytes).
    Removing stm32f10x_cec.o(i.CEC_DeInit), (24 bytes).
    Removing stm32f10x_cec.o(i.CEC_EndOfMessageCmd), (12 bytes).
    Removing stm32f10x_cec.o(i.CEC_GetFlagStatus), (36 bytes).
    Removing stm32f10x_cec.o(i.CEC_GetITStatus), (36 bytes).
    Removing stm32f10x_cec.o(i.CEC_ITConfig), (12 bytes).
    Removing stm32f10x_cec.o(i.CEC_Init), (24 bytes).
    Removing stm32f10x_cec.o(i.CEC_OwnAddressConfig), (12 bytes).
    Removing stm32f10x_cec.o(i.CEC_ReceiveDataByte), (12 bytes).
    Removing stm32f10x_cec.o(i.CEC_SendDataByte), (12 bytes).
    Removing stm32f10x_cec.o(i.CEC_SetPrescaler), (12 bytes).
    Removing stm32f10x_cec.o(i.CEC_StartOfMessage), (16 bytes).
    Removing stm32f10x_crc.o(i.CRC_CalcBlockCRC), (28 bytes).
    Removing stm32f10x_crc.o(i.CRC_CalcCRC), (12 bytes).
    Removing stm32f10x_crc.o(i.CRC_GetCRC), (12 bytes).
    Removing stm32f10x_crc.o(i.CRC_GetIDRegister), (12 bytes).
    Removing stm32f10x_crc.o(i.CRC_ResetDR), (12 bytes).
    Removing stm32f10x_crc.o(i.CRC_SetIDRegister), (12 bytes).
    Removing stm32f10x_dac.o(i.DAC_Cmd), (24 bytes).
    Removing stm32f10x_dac.o(i.DAC_DMACmd), (24 bytes).
    Removing stm32f10x_dac.o(i.DAC_DeInit), (24 bytes).
    Removing stm32f10x_dac.o(i.DAC_DualSoftwareTriggerCmd), (28 bytes).
    Removing stm32f10x_dac.o(i.DAC_GetDataOutputValue), (24 bytes).
    Removing stm32f10x_dac.o(i.DAC_Init), (40 bytes).
    Removing stm32f10x_dac.o(i.DAC_SetChannel1Data), (20 bytes).
    Removing stm32f10x_dac.o(i.DAC_SetChannel2Data), (20 bytes).
    Removing stm32f10x_dac.o(i.DAC_SetDualChannelData), (28 bytes).
    Removing stm32f10x_dac.o(i.DAC_SoftwareTriggerCmd), (28 bytes).
    Removing stm32f10x_dac.o(i.DAC_StructInit), (12 bytes).
    Removing stm32f10x_dac.o(i.DAC_WaveGenerationCmd), (24 bytes).
    Removing stm32f10x_dbgmcu.o(i.DBGMCU_Config), (24 bytes).
    Removing stm32f10x_dbgmcu.o(i.DBGMCU_GetDEVID), (16 bytes).
    Removing stm32f10x_dbgmcu.o(i.DBGMCU_GetREVID), (12 bytes).
    Removing stm32f10x_dma.o(i.DMA_ClearFlag), (24 bytes).
    Removing stm32f10x_dma.o(i.DMA_ClearITPendingBit), (24 bytes).
    Removing stm32f10x_dma.o(i.DMA_Cmd), (22 bytes).
    Removing stm32f10x_dma.o(i.DMA_DeInit), (228 bytes).
    Removing stm32f10x_dma.o(i.DMA_GetCurrDataCounter), (6 bytes).
    Removing stm32f10x_dma.o(i.DMA_GetFlagStatus), (32 bytes).
    Removing stm32f10x_dma.o(i.DMA_GetITStatus), (32 bytes).
    Removing stm32f10x_dma.o(i.DMA_ITConfig), (16 bytes).
    Removing stm32f10x_dma.o(i.DMA_Init), (58 bytes).
    Removing stm32f10x_dma.o(i.DMA_SetCurrDataCounter), (4 bytes).
    Removing stm32f10x_dma.o(i.DMA_StructInit), (26 bytes).
    Removing stm32f10x_exti.o(i.EXTI_ClearFlag), (12 bytes).
    Removing stm32f10x_exti.o(i.EXTI_DeInit), (36 bytes).
    Removing stm32f10x_exti.o(i.EXTI_GetFlagStatus), (20 bytes).
    Removing stm32f10x_exti.o(i.EXTI_StructInit), (14 bytes).
    Removing stm32f10x_flash.o(i.FLASH_ClearFlag), (12 bytes).
    Removing stm32f10x_flash.o(i.FLASH_EnableWriteProtection), (172 bytes).
    Removing stm32f10x_flash.o(i.FLASH_EraseAllBank1Pages), (56 bytes).
    Removing stm32f10x_flash.o(i.FLASH_EraseAllPages), (56 bytes).
    Removing stm32f10x_flash.o(i.FLASH_EraseOptionBytes), (124 bytes).
    Removing stm32f10x_flash.o(i.FLASH_ErasePage), (60 bytes).
    Removing stm32f10x_flash.o(i.FLASH_GetBank1Status), (40 bytes).
    Removing stm32f10x_flash.o(i.FLASH_GetFlagStatus), (32 bytes).
    Removing stm32f10x_flash.o(i.FLASH_GetPrefetchBufferStatus), (20 bytes).
    Removing stm32f10x_flash.o(i.FLASH_GetReadOutProtectionStatus), (20 bytes).
    Removing stm32f10x_flash.o(i.FLASH_GetStatus), (40 bytes).
    Removing stm32f10x_flash.o(i.FLASH_GetUserOptionByte), (12 bytes).
    Removing stm32f10x_flash.o(i.FLASH_GetWriteProtectionOptionByte), (12 bytes).
    Removing stm32f10x_flash.o(i.FLASH_HalfCycleAccessCmd), (24 bytes).
    Removing stm32f10x_flash.o(i.FLASH_ITConfig), (24 bytes).
    Removing stm32f10x_flash.o(i.FLASH_Lock), (16 bytes).
    Removing stm32f10x_flash.o(i.FLASH_LockBank1), (16 bytes).
    Removing stm32f10x_flash.o(i.FLASH_PrefetchBufferCmd), (24 bytes).
    Removing stm32f10x_flash.o(i.FLASH_ProgramHalfWord), (52 bytes).
    Removing stm32f10x_flash.o(i.FLASH_ProgramOptionByteData), (76 bytes).
    Removing stm32f10x_flash.o(i.FLASH_ProgramWord), (80 bytes).
    Removing stm32f10x_flash.o(i.FLASH_ReadOutProtection), (136 bytes).
    Removing stm32f10x_flash.o(i.FLASH_SetLatency), (20 bytes).
    Removing stm32f10x_flash.o(i.FLASH_Unlock), (24 bytes).
    Removing stm32f10x_flash.o(i.FLASH_UnlockBank1), (24 bytes).
    Removing stm32f10x_flash.o(i.FLASH_UserOptionByteConfig), (96 bytes).
    Removing stm32f10x_flash.o(i.FLASH_WaitForLastBank1Operation), (34 bytes).
    Removing stm32f10x_flash.o(i.FLASH_WaitForLastOperation), (34 bytes).
    Removing stm32f10x_fsmc.o(i.FSMC_ClearFlag), (38 bytes).
    Removing stm32f10x_fsmc.o(i.FSMC_ClearITPendingBit), (42 bytes).
    Removing stm32f10x_fsmc.o(i.FSMC_GetECC), (18 bytes).
    Removing stm32f10x_fsmc.o(i.FSMC_GetFlagStatus), (40 bytes).
    Removing stm32f10x_fsmc.o(i.FSMC_GetITStatus), (48 bytes).
    Removing stm32f10x_fsmc.o(i.FSMC_ITConfig), (72 bytes).
    Removing stm32f10x_fsmc.o(i.FSMC_NANDCmd), (56 bytes).
    Removing stm32f10x_fsmc.o(i.FSMC_NANDDeInit), (40 bytes).
    Removing stm32f10x_fsmc.o(i.FSMC_NANDECCCmd), (56 bytes).
    Removing stm32f10x_fsmc.o(i.FSMC_NANDInit), (104 bytes).
    Removing stm32f10x_fsmc.o(i.FSMC_NANDStructInit), (54 bytes).
    Removing stm32f10x_fsmc.o(i.FSMC_NORSRAMDeInit), (38 bytes).
    Removing stm32f10x_fsmc.o(i.FSMC_NORSRAMStructInit), (98 bytes).
    Removing stm32f10x_fsmc.o(i.FSMC_PCCARDCmd), (32 bytes).
    Removing stm32f10x_fsmc.o(i.FSMC_PCCARDDeInit), (26 bytes).
    Removing stm32f10x_fsmc.o(i.FSMC_PCCARDInit), (102 bytes).
    Removing stm32f10x_fsmc.o(i.FSMC_PCCARDStructInit), (60 bytes).
    Removing stm32f10x_gpio.o(i.GPIO_AFIODeInit), (22 bytes).
    Removing stm32f10x_gpio.o(i.GPIO_DeInit), (180 bytes).
    Removing stm32f10x_gpio.o(i.GPIO_ETH_MediaInterfaceConfig), (12 bytes).
    Removing stm32f10x_gpio.o(i.GPIO_EventOutputCmd), (12 bytes).
    Removing stm32f10x_gpio.o(i.GPIO_EventOutputConfig), (28 bytes).
    Removing stm32f10x_gpio.o(i.GPIO_PinLockConfig), (16 bytes).
    Removing stm32f10x_gpio.o(i.GPIO_PinRemapConfig), (88 bytes).
    Removing stm32f10x_gpio.o(i.GPIO_ReadInputData), (6 bytes).
    Removing stm32f10x_gpio.o(i.GPIO_ReadOutputData), (6 bytes).
    Removing stm32f10x_gpio.o(i.GPIO_ReadOutputDataBit), (14 bytes).
    Removing stm32f10x_gpio.o(i.GPIO_StructInit), (16 bytes).
    Removing stm32f10x_gpio.o(i.GPIO_Write), (4 bytes).
    Removing stm32f10x_gpio.o(i.GPIO_WriteBit), (10 bytes).
    Removing stm32f10x_i2c.o(i.I2C_ARPCmd), (20 bytes).
    Removing stm32f10x_i2c.o(i.I2C_AcknowledgeConfig), (20 bytes).
    Removing stm32f10x_i2c.o(i.I2C_CalculatePEC), (20 bytes).
    Removing stm32f10x_i2c.o(i.I2C_CheckEvent), (24 bytes).
    Removing stm32f10x_i2c.o(i.I2C_ClearFlag), (6 bytes).
    Removing stm32f10x_i2c.o(i.I2C_ClearITPendingBit), (6 bytes).
    Removing stm32f10x_i2c.o(i.I2C_Cmd), (20 bytes).
    Removing stm32f10x_i2c.o(i.I2C_DMACmd), (20 bytes).
    Removing stm32f10x_i2c.o(i.I2C_DMALastTransferCmd), (20 bytes).
    Removing stm32f10x_i2c.o(i.I2C_DeInit), (44 bytes).
    Removing stm32f10x_i2c.o(i.I2C_DualAddressCmd), (20 bytes).
    Removing stm32f10x_i2c.o(i.I2C_FastModeDutyCycleConfig), (22 bytes).
    Removing stm32f10x_i2c.o(i.I2C_GeneralCallCmd), (20 bytes).
    Removing stm32f10x_i2c.o(i.I2C_GenerateSTART), (20 bytes).
    Removing stm32f10x_i2c.o(i.I2C_GenerateSTOP), (20 bytes).
    Removing stm32f10x_i2c.o(i.I2C_GetFlagStatus), (42 bytes).
    Removing stm32f10x_i2c.o(i.I2C_GetITStatus), (36 bytes).
    Removing stm32f10x_i2c.o(i.I2C_GetLastEvent), (14 bytes).
    Removing stm32f10x_i2c.o(i.I2C_GetPEC), (6 bytes).
    Removing stm32f10x_i2c.o(i.I2C_ITConfig), (16 bytes).
    Removing stm32f10x_i2c.o(i.I2C_Init), (188 bytes).
    Removing stm32f10x_i2c.o(i.I2C_NACKPositionConfig), (22 bytes).
    Removing stm32f10x_i2c.o(i.I2C_OwnAddress2Config), (16 bytes).
    Removing stm32f10x_i2c.o(i.I2C_PECPositionConfig), (22 bytes).
    Removing stm32f10x_i2c.o(i.I2C_ReadRegister), (10 bytes).
    Removing stm32f10x_i2c.o(i.I2C_ReceiveData), (6 bytes).
    Removing stm32f10x_i2c.o(i.I2C_SMBusAlertConfig), (22 bytes).
    Removing stm32f10x_i2c.o(i.I2C_Send7bitAddress), (16 bytes).
    Removing stm32f10x_i2c.o(i.I2C_SendData), (4 bytes).
    Removing stm32f10x_i2c.o(i.I2C_SoftwareResetCmd), (20 bytes).
    Removing stm32f10x_i2c.o(i.I2C_StretchClockCmd), (20 bytes).
    Removing stm32f10x_i2c.o(i.I2C_StructInit), (28 bytes).
    Removing stm32f10x_i2c.o(i.I2C_TransmitPEC), (20 bytes).
    Removing stm32f10x_iwdg.o(i.IWDG_GetFlagStatus), (20 bytes).
    Removing stm32f10x_pwr.o(i.PWR_BackupAccessCmd), (12 bytes).
    Removing stm32f10x_pwr.o(i.PWR_ClearFlag), (16 bytes).
    Removing stm32f10x_pwr.o(i.PWR_DeInit), (24 bytes).
    Removing stm32f10x_pwr.o(i.PWR_EnterSTANDBYMode), (40 bytes).
    Removing stm32f10x_pwr.o(i.PWR_EnterSTOPMode), (52 bytes).
    Removing stm32f10x_pwr.o(i.PWR_GetFlagStatus), (20 bytes).
    Removing stm32f10x_pwr.o(i.PWR_PVDCmd), (12 bytes).
    Removing stm32f10x_pwr.o(i.PWR_PVDLevelConfig), (20 bytes).
    Removing stm32f10x_pwr.o(i.PWR_WakeUpPinCmd), (12 bytes).
    Removing stm32f10x_rcc.o(i.RCC_ADCCLKConfig), (20 bytes).
    Removing stm32f10x_rcc.o(i.RCC_APB1PeriphResetCmd), (24 bytes).
    Removing stm32f10x_rcc.o(i.RCC_APB2PeriphResetCmd), (24 bytes).
    Removing stm32f10x_rcc.o(i.RCC_AdjustHSICalibrationValue), (20 bytes).
    Removing stm32f10x_rcc.o(i.RCC_BackupResetCmd), (12 bytes).
    Removing stm32f10x_rcc.o(i.RCC_ClearFlag), (16 bytes).
    Removing stm32f10x_rcc.o(i.RCC_ClearITPendingBit), (12 bytes).
    Removing stm32f10x_rcc.o(i.RCC_ClockSecuritySystemCmd), (12 bytes).
    Removing stm32f10x_rcc.o(i.RCC_DeInit), (64 bytes).
    Removing stm32f10x_rcc.o(i.RCC_GetFlagStatus), (48 bytes).
    Removing stm32f10x_rcc.o(i.RCC_GetITStatus), (20 bytes).
    Removing stm32f10x_rcc.o(i.RCC_GetSYSCLKSource), (16 bytes).
    Removing stm32f10x_rcc.o(i.RCC_HCLKConfig), (20 bytes).
    Removing stm32f10x_rcc.o(i.RCC_HSEConfig), (52 bytes).
    Removing stm32f10x_rcc.o(i.RCC_HSICmd), (12 bytes).
    Removing stm32f10x_rcc.o(i.RCC_ITConfig), (24 bytes).
    Removing stm32f10x_rcc.o(i.RCC_LSEConfig), (32 bytes).
    Removing stm32f10x_rcc.o(i.RCC_LSICmd), (12 bytes).
    Removing stm32f10x_rcc.o(i.RCC_MCOConfig), (12 bytes).
    Removing stm32f10x_rcc.o(i.RCC_PCLK1Config), (20 bytes).
    Removing stm32f10x_rcc.o(i.RCC_PCLK2Config), (20 bytes).
    Removing stm32f10x_rcc.o(i.RCC_PLLCmd), (12 bytes).
    Removing stm32f10x_rcc.o(i.RCC_PLLConfig), (20 bytes).
    Removing stm32f10x_rcc.o(i.RCC_RTCCLKCmd), (12 bytes).
    Removing stm32f10x_rcc.o(i.RCC_RTCCLKConfig), (16 bytes).
    Removing stm32f10x_rcc.o(i.RCC_SYSCLKConfig), (20 bytes).
    Removing stm32f10x_rcc.o(i.RCC_USBCLKConfig), (12 bytes).
    Removing stm32f10x_rcc.o(i.RCC_WaitForHSEStartUp), (44 bytes).
    Removing stm32f10x_rtc.o(i.RTC_ClearFlag), (16 bytes).
    Removing stm32f10x_rtc.o(i.RTC_ClearITPendingBit), (16 bytes).
    Removing stm32f10x_rtc.o(i.RTC_EnterConfigMode), (16 bytes).
    Removing stm32f10x_rtc.o(i.RTC_ExitConfigMode), (16 bytes).
    Removing stm32f10x_rtc.o(i.RTC_GetCounter), (20 bytes).
    Removing stm32f10x_rtc.o(i.RTC_GetDivider), (24 bytes).
    Removing stm32f10x_rtc.o(i.RTC_GetFlagStatus), (20 bytes).
    Removing stm32f10x_rtc.o(i.RTC_GetITStatus), (32 bytes).
    Removing stm32f10x_rtc.o(i.RTC_ITConfig), (24 bytes).
    Removing stm32f10x_rtc.o(i.RTC_SetAlarm), (32 bytes).
    Removing stm32f10x_rtc.o(i.RTC_SetCounter), (32 bytes).
    Removing stm32f10x_rtc.o(i.RTC_SetPrescaler), (32 bytes).
    Removing stm32f10x_rtc.o(i.RTC_WaitForLastTask), (16 bytes).
    Removing stm32f10x_rtc.o(i.RTC_WaitForSynchro), (24 bytes).
    Removing stm32f10x_sdio.o(i.SDIO_CEATAITCmd), (16 bytes).
    Removing stm32f10x_sdio.o(i.SDIO_ClearFlag), (12 bytes).
    Removing stm32f10x_sdio.o(i.SDIO_ClearITPendingBit), (12 bytes).
    Removing stm32f10x_sdio.o(i.SDIO_ClockCmd), (12 bytes).
    Removing stm32f10x_sdio.o(i.SDIO_CmdStructInit), (14 bytes).
    Removing stm32f10x_sdio.o(i.SDIO_CommandCompletionCmd), (12 bytes).
    Removing stm32f10x_sdio.o(i.SDIO_DMACmd), (12 bytes).
    Removing stm32f10x_sdio.o(i.SDIO_DataConfig), (44 bytes).
    Removing stm32f10x_sdio.o(i.SDIO_DataStructInit), (20 bytes).
    Removing stm32f10x_sdio.o(i.SDIO_DeInit), (36 bytes).
    Removing stm32f10x_sdio.o(i.SDIO_GetCommandResponse), (12 bytes).
    Removing stm32f10x_sdio.o(i.SDIO_GetDataCounter), (12 bytes).
    Removing stm32f10x_sdio.o(i.SDIO_GetFIFOCount), (12 bytes).
    Removing stm32f10x_sdio.o(i.SDIO_GetFlagStatus), (20 bytes).
    Removing stm32f10x_sdio.o(i.SDIO_GetITStatus), (20 bytes).
    Removing stm32f10x_sdio.o(i.SDIO_GetPowerState), (16 bytes).
    Removing stm32f10x_sdio.o(i.SDIO_GetResponse), (16 bytes).
    Removing stm32f10x_sdio.o(i.SDIO_ITConfig), (24 bytes).
    Removing stm32f10x_sdio.o(i.SDIO_Init), (44 bytes).
    Removing stm32f10x_sdio.o(i.SDIO_ReadData), (12 bytes).
    Removing stm32f10x_sdio.o(i.SDIO_SendCEATACmd), (12 bytes).
    Removing stm32f10x_sdio.o(i.SDIO_SendCommand), (40 bytes).
    Removing stm32f10x_sdio.o(i.SDIO_SendSDIOSuspendCmd), (12 bytes).
    Removing stm32f10x_sdio.o(i.SDIO_SetPowerState), (24 bytes).
    Removing stm32f10x_sdio.o(i.SDIO_SetSDIOOperation), (12 bytes).
    Removing stm32f10x_sdio.o(i.SDIO_SetSDIOReadWaitMode), (12 bytes).
    Removing stm32f10x_sdio.o(i.SDIO_StartSDIOReadWait), (12 bytes).
    Removing stm32f10x_sdio.o(i.SDIO_StopSDIOReadWait), (12 bytes).
    Removing stm32f10x_sdio.o(i.SDIO_StructInit), (16 bytes).
    Removing stm32f10x_sdio.o(i.SDIO_WriteData), (12 bytes).
    Removing stm32f10x_spi.o(i.I2S_Cmd), (20 bytes).
    Removing stm32f10x_spi.o(i.I2S_Init), (150 bytes).
    Removing stm32f10x_spi.o(i.I2S_StructInit), (18 bytes).
    Removing stm32f10x_spi.o(i.SPI_BiDirectionalLineConfig), (22 bytes).
    Removing stm32f10x_spi.o(i.SPI_CalculateCRC), (20 bytes).
    Removing stm32f10x_spi.o(i.SPI_Cmd), (20 bytes).
    Removing stm32f10x_spi.o(i.SPI_DataSizeConfig), (16 bytes).
    Removing stm32f10x_spi.o(i.SPI_GetCRC), (12 bytes).
    Removing stm32f10x_spi.o(i.SPI_GetCRCPolynomial), (4 bytes).
    Removing stm32f10x_spi.o(i.SPI_I2S_ClearFlag), (6 bytes).
    Removing stm32f10x_spi.o(i.SPI_I2S_ClearITPendingBit), (14 bytes).
    Removing stm32f10x_spi.o(i.SPI_I2S_DMACmd), (16 bytes).
    Removing stm32f10x_spi.o(i.SPI_I2S_DeInit), (84 bytes).
    Removing stm32f10x_spi.o(i.SPI_I2S_GetFlagStatus), (14 bytes).
    Removing stm32f10x_spi.o(i.SPI_I2S_GetITStatus), (44 bytes).
    Removing stm32f10x_spi.o(i.SPI_I2S_ITConfig), (24 bytes).
    Removing stm32f10x_spi.o(i.SPI_I2S_ReceiveData), (4 bytes).
    Removing stm32f10x_spi.o(i.SPI_I2S_SendData), (4 bytes).
    Removing stm32f10x_spi.o(i.SPI_Init), (56 bytes).
    Removing stm32f10x_spi.o(i.SPI_NSSInternalSoftwareConfig), (24 bytes).
    Removing stm32f10x_spi.o(i.SPI_SSOutputCmd), (20 bytes).
    Removing stm32f10x_spi.o(i.SPI_StructInit), (24 bytes).
    Removing stm32f10x_spi.o(i.SPI_TransmitCRC), (10 bytes).
    Removing stm32f10x_tim.o(i.TI1_Config), (108 bytes).
    Removing stm32f10x_tim.o(i.TI2_Config), (124 bytes).
    Removing stm32f10x_tim.o(i.TIM_ARRPreloadConfig), (20 bytes).
    Removing stm32f10x_tim.o(i.TIM_BDTRConfig), (34 bytes).
    Removing stm32f10x_tim.o(i.TIM_BDTRStructInit), (18 bytes).
    Removing stm32f10x_tim.o(i.TIM_CCPreloadControl), (20 bytes).
    Removing stm32f10x_tim.o(i.TIM_CCxCmd), (22 bytes).
    Removing stm32f10x_tim.o(i.TIM_CCxNCmd), (22 bytes).
    Removing stm32f10x_tim.o(i.TIM_ClearFlag), (6 bytes).
    Removing stm32f10x_tim.o(i.TIM_ClearITPendingBit), (6 bytes).
    Removing stm32f10x_tim.o(i.TIM_ClearOC1Ref), (12 bytes).
    Removing stm32f10x_tim.o(i.TIM_ClearOC2Ref), (20 bytes).
    Removing stm32f10x_tim.o(i.TIM_ClearOC3Ref), (12 bytes).
    Removing stm32f10x_tim.o(i.TIM_ClearOC4Ref), (20 bytes).
    Removing stm32f10x_tim.o(i.TIM_CounterModeConfig), (12 bytes).
    Removing stm32f10x_tim.o(i.TIM_CtrlPWMOutputs), (22 bytes).
    Removing stm32f10x_tim.o(i.TIM_DMACmd), (16 bytes).
    Removing stm32f10x_tim.o(i.TIM_DMAConfig), (8 bytes).
    Removing stm32f10x_tim.o(i.TIM_DeInit), (368 bytes).
    Removing stm32f10x_tim.o(i.TIM_ETRClockMode1Config), (18 bytes).
    Removing stm32f10x_tim.o(i.TIM_ETRClockMode2Config), (18 bytes).
    Removing stm32f10x_tim.o(i.TIM_ETRConfig), (24 bytes).
    Removing stm32f10x_tim.o(i.TIM_EncoderInterfaceConfig), (50 bytes).
    Removing stm32f10x_tim.o(i.TIM_ForcedOC1Config), (12 bytes).
    Removing stm32f10x_tim.o(i.TIM_ForcedOC2Config), (20 bytes).
    Removing stm32f10x_tim.o(i.TIM_ForcedOC3Config), (12 bytes).
    Removing stm32f10x_tim.o(i.TIM_ForcedOC4Config), (20 bytes).
    Removing stm32f10x_tim.o(i.TIM_GenerateEvent), (4 bytes).
    Removing stm32f10x_tim.o(i.TIM_GetCapture1), (4 bytes).
    Removing stm32f10x_tim.o(i.TIM_GetCapture2), (4 bytes).
    Removing stm32f10x_tim.o(i.TIM_GetCapture3), (4 bytes).
    Removing stm32f10x_tim.o(i.TIM_GetCapture4), (6 bytes).
    Removing stm32f10x_tim.o(i.TIM_GetCounter), (4 bytes).
    Removing stm32f10x_tim.o(i.TIM_GetFlagStatus), (14 bytes).
    Removing stm32f10x_tim.o(i.TIM_GetITStatus), (24 bytes).
    Removing stm32f10x_tim.o(i.TIM_GetPrescaler), (4 bytes).
    Removing stm32f10x_tim.o(i.TIM_ICInit), (300 bytes).
    Removing stm32f10x_tim.o(i.TIM_ICStructInit), (16 bytes).
    Removing stm32f10x_tim.o(i.TIM_ITConfig), (16 bytes).
    Removing stm32f10x_tim.o(i.TIM_ITRxExternalClockConfig), (18 bytes).
    Removing stm32f10x_tim.o(i.TIM_InternalClockConfig), (10 bytes).
    Removing stm32f10x_tim.o(i.TIM_OC1FastConfig), (12 bytes).
    Removing stm32f10x_tim.o(i.TIM_OC1Init), (128 bytes).
    Removing stm32f10x_tim.o(i.TIM_OC1NPolarityConfig), (12 bytes).
    Removing stm32f10x_tim.o(i.TIM_OC1PolarityConfig), (12 bytes).
    Removing stm32f10x_tim.o(i.TIM_OC1PreloadConfig), (12 bytes).
    Removing stm32f10x_tim.o(i.TIM_OC2FastConfig), (20 bytes).
    Removing stm32f10x_tim.o(i.TIM_OC2Init), (128 bytes).
    Removing stm32f10x_tim.o(i.TIM_OC2NPolarityConfig), (20 bytes).
    Removing stm32f10x_tim.o(i.TIM_OC2PolarityConfig), (20 bytes).
    Removing stm32f10x_tim.o(i.TIM_OC2PreloadConfig), (20 bytes).
    Removing stm32f10x_tim.o(i.TIM_OC3FastConfig), (12 bytes).
    Removing stm32f10x_tim.o(i.TIM_OC3NPolarityConfig), (20 bytes).
    Removing stm32f10x_tim.o(i.TIM_OC3PolarityConfig), (20 bytes).
    Removing stm32f10x_tim.o(i.TIM_OC4FastConfig), (20 bytes).
    Removing stm32f10x_tim.o(i.TIM_OC4PolarityConfig), (20 bytes).
    Removing stm32f10x_tim.o(i.TIM_OCStructInit), (20 bytes).
    Removing stm32f10x_tim.o(i.TIM_PWMIConfig), (108 bytes).
    Removing stm32f10x_tim.o(i.TIM_PrescalerConfig), (6 bytes).
    Removing stm32f10x_tim.o(i.TIM_SelectCCDMA), (20 bytes).
    Removing stm32f10x_tim.o(i.TIM_SelectCOM), (20 bytes).
    Removing stm32f10x_tim.o(i.TIM_SelectHallSensor), (20 bytes).
    Removing stm32f10x_tim.o(i.TIM_SelectInputTrigger), (12 bytes).
    Removing stm32f10x_tim.o(i.TIM_SelectMasterSlaveMode), (16 bytes).
    Removing stm32f10x_tim.o(i.TIM_SelectOCxM), (70 bytes).
    Removing stm32f10x_tim.o(i.TIM_SelectOnePulseMode), (16 bytes).
    Removing stm32f10x_tim.o(i.TIM_SelectOutputTrigger), (16 bytes).
    Removing stm32f10x_tim.o(i.TIM_SelectSlaveMode), (16 bytes).
    Removing stm32f10x_tim.o(i.TIM_SetAutoreload), (4 bytes).
    Removing stm32f10x_tim.o(i.TIM_SetClockDivision), (16 bytes).
    Removing stm32f10x_tim.o(i.TIM_SetCompare1), (4 bytes).
    Removing stm32f10x_tim.o(i.TIM_SetCompare2), (4 bytes).
    Removing stm32f10x_tim.o(i.TIM_SetCounter), (4 bytes).
    Removing stm32f10x_tim.o(i.TIM_SetIC1Prescaler), (16 bytes).
    Removing stm32f10x_tim.o(i.TIM_SetIC2Prescaler), (24 bytes).
    Removing stm32f10x_tim.o(i.TIM_SetIC3Prescaler), (16 bytes).
    Removing stm32f10x_tim.o(i.TIM_SetIC4Prescaler), (24 bytes).
    Removing stm32f10x_tim.o(i.TIM_TIxExternalClockConfig), (46 bytes).
    Removing stm32f10x_tim.o(i.TIM_TimeBaseStructInit), (18 bytes).
    Removing stm32f10x_tim.o(i.TIM_UpdateDisableConfig), (20 bytes).
    Removing stm32f10x_tim.o(i.TIM_UpdateRequestConfig), (20 bytes).
    Removing stm32f10x_usart.o(i.USART_ClearITPendingBit), (12 bytes).
    Removing stm32f10x_usart.o(i.USART_ClockInit), (30 bytes).
    Removing stm32f10x_usart.o(i.USART_ClockStructInit), (12 bytes).
    Removing stm32f10x_usart.o(i.USART_DMACmd), (16 bytes).
    Removing stm32f10x_usart.o(i.USART_DeInit), (116 bytes).
    Removing stm32f10x_usart.o(i.USART_HalfDuplexCmd), (20 bytes).
    Removing stm32f10x_usart.o(i.USART_IrDACmd), (20 bytes).
    Removing stm32f10x_usart.o(i.USART_IrDAConfig), (16 bytes).
    Removing stm32f10x_usart.o(i.USART_LINBreakDetectLengthConfig), (16 bytes).
    Removing stm32f10x_usart.o(i.USART_LINCmd), (20 bytes).
    Removing stm32f10x_usart.o(i.USART_OneBitMethodCmd), (20 bytes).
    Removing stm32f10x_usart.o(i.USART_OverSampling8Cmd), (20 bytes).
    Removing stm32f10x_usart.o(i.USART_ReceiverWakeUpCmd), (20 bytes).
    Removing stm32f10x_usart.o(i.USART_SendBreak), (10 bytes).
    Removing stm32f10x_usart.o(i.USART_SetAddress), (16 bytes).
    Removing stm32f10x_usart.o(i.USART_SetGuardTime), (16 bytes).
    Removing stm32f10x_usart.o(i.USART_SetPrescaler), (16 bytes).
    Removing stm32f10x_usart.o(i.USART_SmartCardCmd), (20 bytes).
    Removing stm32f10x_usart.o(i.USART_SmartCardNACKCmd), (20 bytes).
    Removing stm32f10x_usart.o(i.USART_StructInit), (22 bytes).
    Removing stm32f10x_usart.o(i.USART_WakeUpConfig), (16 bytes).
    Removing stm32f10x_wwdg.o(i.WWDG_ClearFlag), (12 bytes).
    Removing stm32f10x_wwdg.o(i.WWDG_DeInit), (24 bytes).
    Removing stm32f10x_wwdg.o(i.WWDG_Enable), (16 bytes).
    Removing stm32f10x_wwdg.o(i.WWDG_EnableIT), (16 bytes).
    Removing stm32f10x_wwdg.o(i.WWDG_GetFlagStatus), (12 bytes).
    Removing stm32f10x_wwdg.o(i.WWDG_SetCounter), (16 bytes).
    Removing stm32f10x_wwdg.o(i.WWDG_SetPrescaler), (20 bytes).
    Removing stm32f10x_wwdg.o(i.WWDG_SetWindowValue), (28 bytes).
    Removing systick.o(i.rt_hw_us_delay), (46 bytes).
    Removing usart.o(i.UsartSendByte), (22 bytes).
    Removing usart.o(i.UsartSendString), (26 bytes).
    Removing usart.o(i.fputc), (36 bytes).
    Removing usart.o(.bss), (256 bytes).
    Removing usart.o(.data), (2 bytes).
    Removing esp8266.o(i.ESP8266_BuildAP), (64 bytes).
    Removing esp8266.o(i.ESP8266_ExitUnvarnishSend), (40 bytes).
    Removing esp8266.o(i.ESP8266_Get_IdLinkStatus), (200 bytes).
    Removing esp8266.o(i.ESP8266_Get_LinkStatus), (124 bytes).
    Removing esp8266.o(i.ESP8266_Inquire_ApIp), (92 bytes).
    Removing esp8266.o(i.ESP8266_ReceiveString), (80 bytes).
    Removing esp8266.o(i.ESP8266_SendString), (140 bytes).
    Removing esp8266.o(i.ESP8266_StartOrShutServer), (136 bytes).
    Removing lcd.o(i.LCD_WR_REG), (12 bytes).
    Removing lcd.o(.data), (2 bytes).
    Removing ov7725_exit.o(i.OV7725_exit_Window_VGA_Set), (192 bytes).
    Removing clock.o(i.rt_system_tick_init), (2 bytes).
    Removing clock.o(i.rt_tick_set), (24 bytes).
    Removing idle.o(i.rt_thread_idle_delhook), (52 bytes).
    Removing idle.o(i.rt_thread_idle_gethandler), (8 bytes).
    Removing idle.o(i.rt_thread_idle_sethook), (52 bytes).
    Removing ipc.o(i.rt_event_control), (46 bytes).
    Removing ipc.o(i.rt_event_delete), (20 bytes).
    Removing ipc.o(i.rt_event_detach), (20 bytes).
    Removing ipc.o(i.rt_event_init), (30 bytes).
    Removing ipc.o(i.rt_mb_control), (58 bytes).
    Removing ipc.o(i.rt_mb_create), (72 bytes).
    Removing ipc.o(i.rt_mb_delete), (34 bytes).
    Removing ipc.o(i.rt_mb_detach), (28 bytes).
    Removing ipc.o(i.rt_mb_init), (52 bytes).
    Removing ipc.o(i.rt_mb_recv), (240 bytes).
    Removing ipc.o(i.rt_mb_send), (6 bytes).
    Removing ipc.o(i.rt_mb_send_wait), (232 bytes).
    Removing ipc.o(i.rt_mq_control), (72 bytes).
    Removing ipc.o(i.rt_mq_detach), (20 bytes).
    Removing ipc.o(i.rt_mq_init), (98 bytes).
    Removing ipc.o(i.rt_sem_control), (46 bytes).
    Removing ipc.o(i.rt_sem_delete), (20 bytes).
    Removing ipc.o(i.rt_sem_detach), (20 bytes).
    Removing ipc.o(i.rt_sem_trytake), (6 bytes).
    Removing irq.o(i.rt_interrupt_get_nest), (12 bytes).
    Removing kservice.o(i._rt_errno), (28 bytes).
    Removing kservice.o(i.rt_free_align), (8 bytes).
    Removing kservice.o(i.rt_get_errno), (28 bytes).
    Removing kservice.o(i.rt_hw_console_output), (2 bytes).
    Removing kservice.o(i.rt_kputs), (12 bytes).
    Removing kservice.o(i.rt_malloc_align), (50 bytes).
    Removing kservice.o(i.rt_memcmp), (28 bytes).
    Removing kservice.o(i.rt_set_errno), (32 bytes).
    Removing kservice.o(i.rt_snprintf), (18 bytes).
    Removing kservice.o(i.rt_sprintf), (18 bytes).
    Removing kservice.o(i.rt_strcasecmp), (42 bytes).
    Removing kservice.o(i.rt_strcmp), (24 bytes).
    Removing kservice.o(i.rt_strdup), (36 bytes).
    Removing kservice.o(i.rt_strncmp), (32 bytes).
    Removing kservice.o(i.rt_strnlen), (20 bytes).
    Removing kservice.o(i.rt_strstr), (54 bytes).
    Removing kservice.o(i.rt_vsprintf), (12 bytes).
    Removing kservice.o(.data), (4 bytes).
    Removing mem.o(i.rt_memory_info), (32 bytes).
    Removing mem.o(i.rt_realloc), (212 bytes).
    Removing object.o(i.rt_object_find), (74 bytes).
    Removing object.o(i.rt_object_get_type), (8 bytes).
    Removing object.o(i.rt_system_object_init), (2 bytes).
    Removing scheduler.o(i.rt_critical_level), (12 bytes).
    Removing thread.o(i.rt_thread_control), (100 bytes).
    Removing thread.o(i.rt_thread_delay), (4 bytes).
    Removing thread.o(i.rt_thread_delete), (64 bytes).
    Removing thread.o(i.rt_thread_detach), (88 bytes).
    Removing thread.o(i.rt_thread_find), (84 bytes).
    Removing timer.o(i.rt_timer_delete), (32 bytes).
    Removing timer.o(i.rt_timer_next_timeout_tick), (28 bytes).
    Removing cpuport.o(i.rt_hw_cpu_reset), (16 bytes).
    Removing cpuport.o(i.rt_hw_cpu_shutdown), (24 bytes).
    Removing cpuport.o(i.rt_hw_exception_install), (12 bytes).
    Removing shell.o(i.finsh_get_echo), (20 bytes).
    Removing shell.o(i.finsh_get_prompt_mode), (20 bytes).
    Removing shell.o(i.finsh_set_echo), (20 bytes).
    Removing shell.o(i.finsh_set_prompt), (52 bytes).
    Removing shell.o(i.finsh_system_var_init), (12 bytes).
    Removing main.o(.data), (1 bytes).
    Removing main.o(.data), (4 bytes).
    Removing system.o(i.CpuInit), (8 bytes).

518 unused section(s) (total 17405 bytes) removed from the image.

==============================================================================

Image Symbol Table

    Local Symbols

    Symbol Name                              Value     Ov Type        Size  Object(Section)

    ../clib/angel/boardlib.s                 0x00000000   Number         0  boardshut.o ABSOLUTE
    ../clib/angel/boardlib.s                 0x00000000   Number         0  boardinit2.o ABSOLUTE
    ../clib/angel/boardlib.s                 0x00000000   Number         0  boardinit3.o ABSOLUTE
    ../clib/angel/boardlib.s                 0x00000000   Number         0  boardinit1.o ABSOLUTE
    ../clib/angel/dczerorl2.s                0x00000000   Number         0  __dczerorl2.o ABSOLUTE
    ../clib/angel/handlers.s                 0x00000000   Number         0  __scatter_zi.o ABSOLUTE
    ../clib/angel/kernel.s                   0x00000000   Number         0  __rtentry.o ABSOLUTE
    ../clib/angel/kernel.s                   0x00000000   Number         0  __rtentry4.o ABSOLUTE
    ../clib/angel/kernel.s                   0x00000000   Number         0  __rtentry2.o ABSOLUTE
    ../clib/angel/kernel.s                   0x00000000   Number         0  rtexit.o ABSOLUTE
    ../clib/angel/kernel.s                   0x00000000   Number         0  rtexit2.o ABSOLUTE
    ../clib/angel/rt.s                       0x00000000   Number         0  rt_raise.o ABSOLUTE
    ../clib/angel/scatter.s                  0x00000000   Number         0  __scatter.o ABSOLUTE
    ../clib/angel/startup.s                  0x00000000   Number         0  __main.o ABSOLUTE
    ../clib/angel/sys.s                      0x00000000   Number         0  sys_stackheap_outer.o ABSOLUTE
    ../clib/angel/sys.s                      0x00000000   Number         0  use_no_semi.o ABSOLUTE
    ../clib/angel/sys.s                      0x00000000   Number         0  indicate_semi.o ABSOLUTE
    ../clib/angel/sys.s                      0x00000000   Number         0  libspace.o ABSOLUTE
    ../clib/angel/sysapp.c                   0x00000000   Number         0  sys_command.o ABSOLUTE
    ../clib/angel/sysapp.c                   0x00000000   Number         0  sys_exit.o ABSOLUTE
    ../clib/angel/sysapp.c                   0x00000000   Number         0  sys_wrch.o ABSOLUTE
    ../clib/armsys.c                         0x00000000   Number         0  _get_argv_nomalloc.o ABSOLUTE
    ../clib/armsys.c                         0x00000000   Number         0  no_argv.o ABSOLUTE
    ../clib/armsys.c                         0x00000000   Number         0  argv_veneer.o ABSOLUTE
    ../clib/armsys.c                         0x00000000   Number         0  argv_veneer.o ABSOLUTE
    ../clib/heapalloc.c                      0x00000000   Number         0  hrguard.o ABSOLUTE
    ../clib/heapaux.c                        0x00000000   Number         0  heapauxi.o ABSOLUTE
    ../clib/libinit.s                        0x00000000   Number         0  libshutdown2.o ABSOLUTE
    ../clib/libinit.s                        0x00000000   Number         0  libshutdown.o ABSOLUTE
    ../clib/libinit.s                        0x00000000   Number         0  libinit.o ABSOLUTE
    ../clib/libinit.s                        0x00000000   Number         0  libinit2.o ABSOLUTE
    ../clib/memcpset.s                       0x00000000   Number         0  strcmpv7m.o ABSOLUTE
    ../clib/memcpset.s                       0x00000000   Number         0  strncpy.o ABSOLUTE
    ../clib/memcpset.s                       0x00000000   Number         0  rt_memclr_w.o ABSOLUTE
    ../clib/memcpset.s                       0x00000000   Number         0  rt_memclr.o ABSOLUTE
    ../clib/memcpset.s                       0x00000000   Number         0  rt_memcpy_w.o ABSOLUTE
    ../clib/printf.c                         0x00000000   Number         0  __2sprintf.o ABSOLUTE
    ../clib/printf.c                         0x00000000   Number         0  noretval__2sprintf.o ABSOLUTE
    ../clib/printf.c                         0x00000000   Number         0  _printf_char.o ABSOLUTE
    ../clib/printf.c                         0x00000000   Number         0  __printf_nopercent.o ABSOLUTE
    ../clib/printf.c                         0x00000000   Number         0  __printf_ss_wp.o ABSOLUTE
    ../clib/printf.c                         0x00000000   Number         0  __printf.o ABSOLUTE
    ../clib/printf.c                         0x00000000   Number         0  _sputc.o ABSOLUTE
    ../clib/printf.c                         0x00000000   Number         0  __printf_flags_ss.o ABSOLUTE
    ../clib/printf.c                         0x00000000   Number         0  _printf_str.o ABSOLUTE
    ../clib/printf.c                         0x00000000   Number         0  _printf_char_common.o ABSOLUTE
    ../clib/printf.c                         0x00000000   Number         0  _printf_dec.o ABSOLUTE
    ../clib/printf.c                         0x00000000   Number         0  __printf_flags_ss_wp.o ABSOLUTE
    ../clib/printf.c                         0x00000000   Number         0  __printf_flags.o ABSOLUTE
    ../clib/printf.c                         0x00000000   Number         0  __printf_ss.o ABSOLUTE
    ../clib/printf.c                         0x00000000   Number         0  __printf_wp.o ABSOLUTE
    ../clib/printf.c                         0x00000000   Number         0  _printf_intcommon.o ABSOLUTE
    ../clib/printf.c                         0x00000000   Number         0  __printf_flags_wp.o ABSOLUTE
    ../clib/printf_percent.s                 0x00000000   Number         0  _printf_percent_end.o ABSOLUTE
    ../clib/printf_percent.s                 0x00000000   Number         0  _printf_c.o ABSOLUTE
    ../clib/printf_percent.s                 0x00000000   Number         0  _printf_s.o ABSOLUTE
    ../clib/printf_percent.s                 0x00000000   Number         0  _printf_d.o ABSOLUTE
    ../clib/printf_percent.s                 0x00000000   Number         0  _printf_percent.o ABSOLUTE
    ../clib/signal.c                         0x00000000   Number         0  defsig_segv_inner.o ABSOLUTE
    ../clib/signal.c                         0x00000000   Number         0  defsig_rtmem_outer.o ABSOLUTE
    ../clib/signal.c                         0x00000000   Number         0  defsig_cppl_inner.o ABSOLUTE
    ../clib/signal.c                         0x00000000   Number         0  defsig_pvfn_inner.o ABSOLUTE
    ../clib/signal.c                         0x00000000   Number         0  defsig_rtred_inner.o ABSOLUTE
    ../clib/signal.c                         0x00000000   Number         0  defsig_exit.o ABSOLUTE
    ../clib/signal.c                         0x00000000   Number         0  defsig_stak_inner.o ABSOLUTE
    ../clib/signal.c                         0x00000000   Number         0  defsig_rtmem_inner.o ABSOLUTE
    ../clib/signal.c                         0x00000000   Number         0  defsig_rtmem_formal.o ABSOLUTE
    ../clib/signal.c                         0x00000000   Number         0  __raise.o ABSOLUTE
    ../clib/signal.c                         0x00000000   Number         0  defsig_general.o ABSOLUTE
    ../clib/signal.c                         0x00000000   Number         0  defsig_other.o ABSOLUTE
    ../clib/signal.c                         0x00000000   Number         0  defsig_abrt_inner.o ABSOLUTE
    ../clib/signal.c                         0x00000000   Number         0  defsig_fpe_inner.o ABSOLUTE
    ../clib/signal.s                         0x00000000   Number         0  defsig.o ABSOLUTE
    ../clib/stdlib.c                         0x00000000   Number         0  exit.o ABSOLUTE
    ../clib/string.c                         0x00000000   Number         0  strstr.o ABSOLUTE
    ../clib/string.c                         0x00000000   Number         0  strcat.o ABSOLUTE
    ../clib/string.c                         0x00000000   Number         0  strncmp.o ABSOLUTE
    ../clib/string.c                         0x00000000   Number         0  strlen.o ABSOLUTE
    ../clib/string.c                         0x00000000   Number         0  strcpy.o ABSOLUTE
    ../fplib/daddsub.s                       0x00000000   Number         0  daddsub_clz.o ABSOLUTE
    ../fplib/dfixu.s                         0x00000000   Number         0  dfixu.o ABSOLUTE
    ../fplib/dflt.s                          0x00000000   Number         0  dflt_clz.o ABSOLUTE
    ../fplib/dmul.s                          0x00000000   Number         0  dmul.o ABSOLUTE
    ../fplib/dnaninf.s                       0x00000000   Number         0  dnaninf.o ABSOLUTE
    ../fplib/dretinf.s                       0x00000000   Number         0  dretinf.o ABSOLUTE
    ../fplib/fpinit.s                        0x00000000   Number         0  fpinit.o ABSOLUTE
    ../fplib/usenofp.s                       0x00000000   Number         0  usenofp.o ABSOLUTE
    ..\Applications\App\LCD_Basic_application.c 0x00000000   Number         0  lcd_basic_application.o ABSOLUTE
    ..\Applications\App\LCD_Interface_design.c 0x00000000   Number         0  lcd_interface_design.o ABSOLUTE
    ..\Applications\App\License_plate_recognition.c 0x00000000   Number         0  license_plate_recognition.o ABSOLUTE
    ..\Applications\App\Parking_detection_processing.c 0x00000000   Number         0  parking_detection_processing.o ABSOLUTE
    ..\Applications\App\Task.c               0x00000000   Number         0  task.o ABSOLUTE
    ..\Applications\Main\board.c             0x00000000   Number         0  board.o ABSOLUTE
    ..\Applications\Main\main.c              0x00000000   Number         0  main.o ABSOLUTE
    ..\Applications\Main\system.c            0x00000000   Number         0  system.o ABSOLUTE
    ..\Drivers\Core\IWDG.c                   0x00000000   Number         0  iwdg.o ABSOLUTE
    ..\Drivers\Core\PWM.c                    0x00000000   Number         0  pwm.o ABSOLUTE
    ..\Drivers\Core\SysTick.c                0x00000000   Number         0  systick.o ABSOLUTE
    ..\Drivers\Core\USart.c                  0x00000000   Number         0  usart.o ABSOLUTE
    ..\Drivers\ESP8266\ESP8266.c             0x00000000   Number         0  esp8266.o ABSOLUTE
    ..\Drivers\Infrared_barrier\Infrared_barrier.c 0x00000000   Number         0  infrared_barrier.o ABSOLUTE
    ..\Drivers\NT35310\lcd.c                 0x00000000   Number         0  lcd.o ABSOLUTE
    ..\Drivers\OV7725\OV7725_entrance.c      0x00000000   Number         0  ov7725_entrance.o ABSOLUTE
    ..\Drivers\OV7725\OV7725_exit.c          0x00000000   Number         0  ov7725_exit.o ABSOLUTE
    ..\Drivers\OV7725\OV7725sccb_entrance.c  0x00000000   Number         0  ov7725sccb_entrance.o ABSOLUTE
    ..\Drivers\OV7725\OV7725sccb_exit.c      0x00000000   Number         0  ov7725sccb_exit.o ABSOLUTE
    ..\Drivers\Smoke_sensor\Smoke_sensor.c   0x00000000   Number         0  smoke_sensor.o ABSOLUTE
    ..\HAL\CMSIS\core_cm3.c                  0x00000000   Number         0  core_cm3.o ABSOLUTE
    ..\HAL\CMSIS\startup_stm32f10x_hd.s      0x00000000   Number         0  startup_stm32f10x_hd.o ABSOLUTE
    ..\HAL\CMSIS\system_stm32f10x.c          0x00000000   Number         0  system_stm32f10x.o ABSOLUTE
    ..\HAL\STM32F4xx_HAL_Driver\Src\misc.c   0x00000000   Number         0  misc.o ABSOLUTE
    ..\HAL\STM32F4xx_HAL_Driver\Src\stm32f10x_adc.c 0x00000000   Number         0  stm32f10x_adc.o ABSOLUTE
    ..\HAL\STM32F4xx_HAL_Driver\Src\stm32f10x_bkp.c 0x00000000   Number         0  stm32f10x_bkp.o ABSOLUTE
    ..\HAL\STM32F4xx_HAL_Driver\Src\stm32f10x_can.c 0x00000000   Number         0  stm32f10x_can.o ABSOLUTE
    ..\HAL\STM32F4xx_HAL_Driver\Src\stm32f10x_cec.c 0x00000000   Number         0  stm32f10x_cec.o ABSOLUTE
    ..\HAL\STM32F4xx_HAL_Driver\Src\stm32f10x_crc.c 0x00000000   Number         0  stm32f10x_crc.o ABSOLUTE
    ..\HAL\STM32F4xx_HAL_Driver\Src\stm32f10x_dac.c 0x00000000   Number         0  stm32f10x_dac.o ABSOLUTE
    ..\HAL\STM32F4xx_HAL_Driver\Src\stm32f10x_dbgmcu.c 0x00000000   Number         0  stm32f10x_dbgmcu.o ABSOLUTE
    ..\HAL\STM32F4xx_HAL_Driver\Src\stm32f10x_dma.c 0x00000000   Number         0  stm32f10x_dma.o ABSOLUTE
    ..\HAL\STM32F4xx_HAL_Driver\Src\stm32f10x_exti.c 0x00000000   Number         0  stm32f10x_exti.o ABSOLUTE
    ..\HAL\STM32F4xx_HAL_Driver\Src\stm32f10x_flash.c 0x00000000   Number         0  stm32f10x_flash.o ABSOLUTE
    ..\HAL\STM32F4xx_HAL_Driver\Src\stm32f10x_fsmc.c 0x00000000   Number         0  stm32f10x_fsmc.o ABSOLUTE
    ..\HAL\STM32F4xx_HAL_Driver\Src\stm32f10x_gpio.c 0x00000000   Number         0  stm32f10x_gpio.o ABSOLUTE
    ..\HAL\STM32F4xx_HAL_Driver\Src\stm32f10x_i2c.c 0x00000000   Number         0  stm32f10x_i2c.o ABSOLUTE
    ..\HAL\STM32F4xx_HAL_Driver\Src\stm32f10x_iwdg.c 0x00000000   Number         0  stm32f10x_iwdg.o ABSOLUTE
    ..\HAL\STM32F4xx_HAL_Driver\Src\stm32f10x_pwr.c 0x00000000   Number         0  stm32f10x_pwr.o ABSOLUTE
    ..\HAL\STM32F4xx_HAL_Driver\Src\stm32f10x_rcc.c 0x00000000   Number         0  stm32f10x_rcc.o ABSOLUTE
    ..\HAL\STM32F4xx_HAL_Driver\Src\stm32f10x_rtc.c 0x00000000   Number         0  stm32f10x_rtc.o ABSOLUTE
    ..\HAL\STM32F4xx_HAL_Driver\Src\stm32f10x_sdio.c 0x00000000   Number         0  stm32f10x_sdio.o ABSOLUTE
    ..\HAL\STM32F4xx_HAL_Driver\Src\stm32f10x_spi.c 0x00000000   Number         0  stm32f10x_spi.o ABSOLUTE
    ..\HAL\STM32F4xx_HAL_Driver\Src\stm32f10x_tim.c 0x00000000   Number         0  stm32f10x_tim.o ABSOLUTE
    ..\HAL\STM32F4xx_HAL_Driver\Src\stm32f10x_usart.c 0x00000000   Number         0  stm32f10x_usart.o ABSOLUTE
    ..\HAL\STM32F4xx_HAL_Driver\Src\stm32f10x_wwdg.c 0x00000000   Number         0  stm32f10x_wwdg.o ABSOLUTE
    ..\Midwares\RT-Thread\components\finsh\cmd.c 0x00000000   Number         0  cmd.o ABSOLUTE
    ..\Midwares\RT-Thread\components\finsh\msh.c 0x00000000   Number         0  msh.o ABSOLUTE
    ..\Midwares\RT-Thread\components\finsh\shell.c 0x00000000   Number         0  shell.o ABSOLUTE
    ..\Midwares\RT-Thread\libcpu\arm\cortex-m3\context_rvds.S 0x00000000   Number         0  context_rvds.o ABSOLUTE
    ..\Midwares\RT-Thread\libcpu\arm\cortex-m3\cpuport.c 0x00000000   Number         0  cpuport.o ABSOLUTE
    ..\Midwares\RT-Thread\src\clock.c        0x00000000   Number         0  clock.o ABSOLUTE
    ..\Midwares\RT-Thread\src\components.c   0x00000000   Number         0  components.o ABSOLUTE
    ..\Midwares\RT-Thread\src\cpu.c          0x00000000   Number         0  cpu.o ABSOLUTE
    ..\Midwares\RT-Thread\src\device.c       0x00000000   Number         0  device.o ABSOLUTE
    ..\Midwares\RT-Thread\src\idle.c         0x00000000   Number         0  idle.o ABSOLUTE
    ..\Midwares\RT-Thread\src\ipc.c          0x00000000   Number         0  ipc.o ABSOLUTE
    ..\Midwares\RT-Thread\src\irq.c          0x00000000   Number         0  irq.o ABSOLUTE
    ..\Midwares\RT-Thread\src\kservice.c     0x00000000   Number         0  kservice.o ABSOLUTE
    ..\Midwares\RT-Thread\src\mem.c          0x00000000   Number         0  mem.o ABSOLUTE
    ..\Midwares\RT-Thread\src\memheap.c      0x00000000   Number         0  memheap.o ABSOLUTE
    ..\Midwares\RT-Thread\src\mempool.c      0x00000000   Number         0  mempool.o ABSOLUTE
    ..\Midwares\RT-Thread\src\object.c       0x00000000   Number         0  object.o ABSOLUTE
    ..\Midwares\RT-Thread\src\scheduler.c    0x00000000   Number         0  scheduler.o ABSOLUTE
    ..\Midwares\RT-Thread\src\slab.c         0x00000000   Number         0  slab.o ABSOLUTE
    ..\Midwares\RT-Thread\src\thread.c       0x00000000   Number         0  thread.o ABSOLUTE
    ..\Midwares\RT-Thread\src\timer.c        0x00000000   Number         0  timer.o ABSOLUTE
    ..\\HAL\\CMSIS\\core_cm3.c               0x00000000   Number         0  core_cm3.o ABSOLUTE
    dc.s                                     0x00000000   Number         0  dc.o ABSOLUTE
    RESET                                    0x08000000   Section      304  startup_stm32f10x_hd.o(RESET)
    !!!main                                  0x08000130   Section        8  __main.o(!!!main)
    !!!scatter                               0x08000138   Section       52  __scatter.o(!!!scatter)
    !!dczerorl2                              0x0800016c   Section       90  __dczerorl2.o(!!dczerorl2)
    !!handler_zi                             0x080001c8   Section       28  __scatter_zi.o(!!handler_zi)
    .ARM.Collect$$_printf_percent$$00000000  0x080001e4   Section        0  _printf_percent.o(.ARM.Collect$$_printf_percent$$00000000)
    .ARM.Collect$$_printf_percent$$00000009  0x080001e4   Section        6  _printf_d.o(.ARM.Collect$$_printf_percent$$00000009)
    .ARM.Collect$$_printf_percent$$00000013  0x080001ea   Section        6  _printf_c.o(.ARM.Collect$$_printf_percent$$00000013)
    .ARM.Collect$$_printf_percent$$00000014  0x080001f0   Section        6  _printf_s.o(.ARM.Collect$$_printf_percent$$00000014)
    .ARM.Collect$$_printf_percent$$00000017  0x080001f6   Section        4  _printf_percent_end.o(.ARM.Collect$$_printf_percent$$00000017)
    .ARM.Collect$$libinit$$00000000          0x080001fa   Section        2  libinit.o(.ARM.Collect$$libinit$$00000000)
    .ARM.Collect$$libinit$$00000002          0x080001fc   Section        0  libinit2.o(.ARM.Collect$$libinit$$00000002)
    .ARM.Collect$$libinit$$00000004          0x080001fc   Section        0  libinit2.o(.ARM.Collect$$libinit$$00000004)
    .ARM.Collect$$libinit$$0000000A          0x080001fc   Section        0  libinit2.o(.ARM.Collect$$libinit$$0000000A)
    .ARM.Collect$$libinit$$0000000C          0x080001fc   Section        0  libinit2.o(.ARM.Collect$$libinit$$0000000C)
    .ARM.Collect$$libinit$$0000000E          0x080001fc   Section        0  libinit2.o(.ARM.Collect$$libinit$$0000000E)
    .ARM.Collect$$libinit$$00000011          0x080001fc   Section        0  libinit2.o(.ARM.Collect$$libinit$$00000011)
    .ARM.Collect$$libinit$$00000013          0x080001fc   Section        0  libinit2.o(.ARM.Collect$$libinit$$00000013)
    .ARM.Collect$$libinit$$00000015          0x080001fc   Section        0  libinit2.o(.ARM.Collect$$libinit$$00000015)
    .ARM.Collect$$libinit$$00000017          0x080001fc   Section        0  libinit2.o(.ARM.Collect$$libinit$$00000017)
    .ARM.Collect$$libinit$$00000019          0x080001fc   Section        0  libinit2.o(.ARM.Collect$$libinit$$00000019)
    .ARM.Collect$$libinit$$0000001B          0x080001fc   Section        0  libinit2.o(.ARM.Collect$$libinit$$0000001B)
    .ARM.Collect$$libinit$$0000001D          0x080001fc   Section        0  libinit2.o(.ARM.Collect$$libinit$$0000001D)
    .ARM.Collect$$libinit$$0000001F          0x080001fc   Section        0  libinit2.o(.ARM.Collect$$libinit$$0000001F)
    .ARM.Collect$$libinit$$00000021          0x080001fc   Section        0  libinit2.o(.ARM.Collect$$libinit$$00000021)
    .ARM.Collect$$libinit$$00000023          0x080001fc   Section        0  libinit2.o(.ARM.Collect$$libinit$$00000023)
    .ARM.Collect$$libinit$$00000025          0x080001fc   Section        0  libinit2.o(.ARM.Collect$$libinit$$00000025)
    .ARM.Collect$$libinit$$0000002C          0x080001fc   Section        0  libinit2.o(.ARM.Collect$$libinit$$0000002C)
    .ARM.Collect$$libinit$$0000002E          0x080001fc   Section        0  libinit2.o(.ARM.Collect$$libinit$$0000002E)
    .ARM.Collect$$libinit$$00000030          0x080001fc   Section        0  libinit2.o(.ARM.Collect$$libinit$$00000030)
    .ARM.Collect$$libinit$$00000032          0x080001fc   Section        0  libinit2.o(.ARM.Collect$$libinit$$00000032)
    .ARM.Collect$$libinit$$00000033          0x080001fc   Section        2  libinit2.o(.ARM.Collect$$libinit$$00000033)
    .ARM.Collect$$libshutdown$$00000000      0x080001fe   Section        2  libshutdown.o(.ARM.Collect$$libshutdown$$00000000)
    .ARM.Collect$$libshutdown$$00000002      0x08000200   Section        0  libshutdown2.o(.ARM.Collect$$libshutdown$$00000002)
    .ARM.Collect$$libshutdown$$00000004      0x08000200   Section        0  libshutdown2.o(.ARM.Collect$$libshutdown$$00000004)
    .ARM.Collect$$libshutdown$$00000006      0x08000200   Section        0  libshutdown2.o(.ARM.Collect$$libshutdown$$00000006)
    .ARM.Collect$$libshutdown$$00000009      0x08000200   Section        0  libshutdown2.o(.ARM.Collect$$libshutdown$$00000009)
    .ARM.Collect$$libshutdown$$0000000C      0x08000200   Section        0  libshutdown2.o(.ARM.Collect$$libshutdown$$0000000C)
    .ARM.Collect$$libshutdown$$0000000E      0x08000200   Section        0  libshutdown2.o(.ARM.Collect$$libshutdown$$0000000E)
    .ARM.Collect$$libshutdown$$00000011      0x08000200   Section        0  libshutdown2.o(.ARM.Collect$$libshutdown$$00000011)
    .ARM.Collect$$libshutdown$$00000012      0x08000200   Section        2  libshutdown2.o(.ARM.Collect$$libshutdown$$00000012)
    .ARM.Collect$$rtentry$$00000000          0x08000202   Section        0  __rtentry.o(.ARM.Collect$$rtentry$$00000000)
    .ARM.Collect$$rtentry$$00000002          0x08000202   Section        0  __rtentry2.o(.ARM.Collect$$rtentry$$00000002)
    .ARM.Collect$$rtentry$$00000004          0x08000202   Section        6  __rtentry4.o(.ARM.Collect$$rtentry$$00000004)
    .ARM.Collect$$rtentry$$00000009          0x08000208   Section        0  __rtentry2.o(.ARM.Collect$$rtentry$$00000009)
    .ARM.Collect$$rtentry$$0000000A          0x08000208   Section        4  __rtentry2.o(.ARM.Collect$$rtentry$$0000000A)
    .ARM.Collect$$rtentry$$0000000C          0x0800020c   Section        0  __rtentry2.o(.ARM.Collect$$rtentry$$0000000C)
    .ARM.Collect$$rtentry$$0000000D          0x0800020c   Section        8  __rtentry2.o(.ARM.Collect$$rtentry$$0000000D)
    .ARM.Collect$$rtexit$$00000000           0x08000214   Section        2  rtexit.o(.ARM.Collect$$rtexit$$00000000)
    .ARM.Collect$$rtexit$$00000002           0x08000216   Section        0  rtexit2.o(.ARM.Collect$$rtexit$$00000002)
    .ARM.Collect$$rtexit$$00000003           0x08000216   Section        4  rtexit2.o(.ARM.Collect$$rtexit$$00000003)
    .ARM.Collect$$rtexit$$00000004           0x0800021a   Section        6  rtexit2.o(.ARM.Collect$$rtexit$$00000004)
    .text                                    0x08000220   Section       64  startup_stm32f10x_hd.o(.text)
    .text                                    0x08000260   Section      244  context_rvds.o(.text)
    .text                                    0x08000354   Section        0  noretval__2sprintf.o(.text)
    .text                                    0x0800037c   Section        0  __printf.o(.text)
    .text                                    0x080003e4   Section        0  _printf_str.o(.text)
    .text                                    0x08000438   Section        0  _printf_dec.o(.text)
    .text                                    0x080004b0   Section        0  strstr.o(.text)
    .text                                    0x080004d4   Section        0  strcpy.o(.text)
    .text                                    0x0800051c   Section        0  strlen.o(.text)
    .text                                    0x0800055a   Section        0  strncmp.o(.text)
    .text                                    0x080005f0   Section        0  strcat.o(.text)
    .text                                    0x08000608   Section      100  rt_memcpy_w.o(.text)
    .text                                    0x0800066c   Section       68  rt_memclr.o(.text)
    .text                                    0x080006b0   Section       78  rt_memclr_w.o(.text)
    .text                                    0x080006fe   Section       86  strncpy.o(.text)
    .text                                    0x08000754   Section      128  strcmpv7m.o(.text)
    .text                                    0x080007d4   Section        0  heapauxi.o(.text)
    .text                                    0x080007da   Section        0  _printf_intcommon.o(.text)
    .text                                    0x0800088c   Section        0  _printf_char_common.o(.text)
    _printf_input_char                       0x0800088d   Thumb Code    10  _printf_char_common.o(.text)
    .text                                    0x080008bc   Section        0  _sputc.o(.text)
    .text                                    0x080008c6   Section        0  _printf_char.o(.text)
    .text                                    0x080008f2   Section       74  sys_stackheap_outer.o(.text)
    .text                                    0x0800093c   Section        0  exit.o(.text)
    .text                                    0x08000950   Section        8  libspace.o(.text)
    .text                                    0x08000958   Section        0  sys_exit.o(.text)
    .text                                    0x08000964   Section        2  use_no_semi.o(.text)
    .text                                    0x08000966   Section        0  indicate_semi.o(.text)
    i.$Sub$$main                             0x08000966   Section        0  components.o(i.$Sub$$main)
    i.Area_bin                               0x08000970   Section        0  license_plate_recognition.o(i.Area_bin)
    i.Areap_LP                               0x08000b2c   Section        0  license_plate_recognition.o(i.Areap_LP)
    i.ButtonDetect                           0x08000e08   Section        0  parking_detection_processing.o(i.ButtonDetect)
    ButtonDetect                             0x08000e09   Thumb Code    88  parking_detection_processing.o(i.ButtonDetect)
    i.ButtonInit                             0x08000e64   Section        0  parking_detection_processing.o(i.ButtonInit)
    i.ButtonProj                             0x08000e78   Section        0  parking_detection_processing.o(i.ButtonProj)
    i.ButtonVarInit                          0x08000eb8   Section        0  parking_detection_processing.o(i.ButtonVarInit)
    ButtonVarInit                            0x08000eb9   Thumb Code   170  parking_detection_processing.o(i.ButtonVarInit)
    i.Camera_settings                        0x08000f84   Section        0  system.o(i.Camera_settings)
    i.Character_matching                     0x08000ff8   Section        0  license_plate_recognition.o(i.Character_matching)
    i.Character_segmentation                 0x08001128   Section        0  license_plate_recognition.o(i.Character_segmentation)
    i.DrawCircular_SymmetryPoint             0x08001470   Section        0  lcd_basic_application.o(i.DrawCircular_SymmetryPoint)
    i.DrawFont16                             0x08001508   Section        0  lcd_basic_application.o(i.DrawFont16)
    i.DrawFont24                             0x080015e4   Section        0  lcd_basic_application.o(i.DrawFont24)
    i.DrawFont32                             0x080016c4   Section        0  lcd_basic_application.o(i.DrawFont32)
    i.DrawHollowCircular                     0x080017a0   Section        0  lcd_basic_application.o(i.DrawHollowCircular)
    i.DrawHollowRectangle                    0x080017e6   Section        0  lcd_basic_application.o(i.DrawHollowRectangle)
    i.DrawLine                               0x0800182a   Section        0  lcd_basic_application.o(i.DrawLine)
    i.DrawPoint                              0x08001914   Section        0  lcd_basic_application.o(i.DrawPoint)
    i.DrawSolidCircular                      0x08001928   Section        0  lcd_basic_application.o(i.DrawSolidCircular)
    i.DrawSolidRectangle                     0x08001978   Section        0  lcd_basic_application.o(i.DrawSolidRectangle)
    i.ESP8266_AT_Test                        0x080019c8   Section        0  esp8266.o(i.ESP8266_AT_Test)
    i.ESP8266_Cmd                            0x08001a0c   Section        0  esp8266.o(i.ESP8266_Cmd)
    i.ESP8266_Enable_MultipleId              0x08001b18   Section        0  esp8266.o(i.ESP8266_Enable_MultipleId)
    i.ESP8266_Init                           0x08001b54   Section        0  esp8266.o(i.ESP8266_Init)
    i.ESP8266_JoinAP                         0x08001bb0   Section        0  esp8266.o(i.ESP8266_JoinAP)
    i.ESP8266_Link_Server                    0x08001bec   Section        0  esp8266.o(i.ESP8266_Link_Server)
    i.ESP8266_Net_Mode_Choose                0x08001c9c   Section        0  esp8266.o(i.ESP8266_Net_Mode_Choose)
    i.ESP8266_Rst                            0x08001cfc   Section        0  esp8266.o(i.ESP8266_Rst)
    i.ESP8266_USART_Config                   0x08001d24   Section        0  esp8266.o(i.ESP8266_USART_Config)
    ESP8266_USART_Config                     0x08001d25   Thumb Code   180  esp8266.o(i.ESP8266_USART_Config)
    i.ESP8266_UnvarnishSend                  0x08001de0   Section        0  esp8266.o(i.ESP8266_UnvarnishSend)
    i.EXTI15_10_IRQHandler                   0x08001e2c   Section        0  ov7725_exit.o(i.EXTI15_10_IRQHandler)
    i.EXTI9_5_IRQHandler                     0x08001e8c   Section        0  ov7725_entrance.o(i.EXTI9_5_IRQHandler)
    i.EXTI_ClearITPendingBit                 0x08001ef4   Section        0  stm32f10x_exti.o(i.EXTI_ClearITPendingBit)
    i.EXTI_GenerateSWInterrupt               0x08001f00   Section        0  stm32f10x_exti.o(i.EXTI_GenerateSWInterrupt)
    i.EXTI_GetITStatus                       0x08001f10   Section        0  stm32f10x_exti.o(i.EXTI_GetITStatus)
    i.EXTI_Init                              0x08001f30   Section        0  stm32f10x_exti.o(i.EXTI_Init)
    i.Entrance_LP_communication              0x08001fa0   Section        0  license_plate_recognition.o(i.Entrance_LP_communication)
    i.Event_thread_entry                     0x08002018   Section        0  task.o(i.Event_thread_entry)
    Event_thread_entry                       0x08002019   Thumb Code    60  task.o(i.Event_thread_entry)
    i.Exit_LP_communication                  0x08002060   Section        0  license_plate_recognition.o(i.Exit_LP_communication)
    i.FSMC_NORSRAMCmd                        0x08002174   Section        0  stm32f10x_fsmc.o(i.FSMC_NORSRAMCmd)
    i.FSMC_NORSRAMInit                       0x08002194   Section        0  stm32f10x_fsmc.o(i.FSMC_NORSRAMInit)
    i.GENERAL_TIM_Init                       0x0800225c   Section        0  pwm.o(i.GENERAL_TIM_Init)
    i.GENERAL_TIM_Mode_Config                0x0800228c   Section        0  pwm.o(i.GENERAL_TIM_Mode_Config)
    GENERAL_TIM_Mode_Config                  0x0800228d   Thumb Code   126  pwm.o(i.GENERAL_TIM_Mode_Config)
    i.GPIO_EXTILineConfig                    0x08002310   Section        0  stm32f10x_gpio.o(i.GPIO_EXTILineConfig)
    i.GPIO_Init                              0x08002338   Section        0  stm32f10x_gpio.o(i.GPIO_Init)
    i.GPIO_ReadInputDataBit                  0x080023d4   Section        0  stm32f10x_gpio.o(i.GPIO_ReadInputDataBit)
    i.GPIO_ResetBits                         0x080023e2   Section        0  stm32f10x_gpio.o(i.GPIO_ResetBits)
    i.GPIO_SetBits                           0x080023e6   Section        0  stm32f10x_gpio.o(i.GPIO_SetBits)
    i.IWDG_Config                            0x080023ea   Section        0  iwdg.o(i.IWDG_Config)
    i.IWDG_Enable                            0x08002410   Section        0  stm32f10x_iwdg.o(i.IWDG_Enable)
    i.IWDG_Feed                              0x08002420   Section        0  iwdg.o(i.IWDG_Feed)
    i.IWDG_ReloadCounter                     0x08002424   Section        0  stm32f10x_iwdg.o(i.IWDG_ReloadCounter)
    i.IWDG_SetPrescaler                      0x08002434   Section        0  stm32f10x_iwdg.o(i.IWDG_SetPrescaler)
    i.IWDG_SetReload                         0x08002440   Section        0  stm32f10x_iwdg.o(i.IWDG_SetReload)
    i.IWDG_WriteAccessCmd                    0x0800244c   Section        0  stm32f10x_iwdg.o(i.IWDG_WriteAccessCmd)
    i.IWDG_thread_entry                      0x08002458   Section        0  task.o(i.IWDG_thread_entry)
    IWDG_thread_entry                        0x08002459   Thumb Code    22  task.o(i.IWDG_thread_entry)
    i.In_ProcessSoftTimer_callback           0x08002478   Section        0  parking_detection_processing.o(i.In_ProcessSoftTimer_callback)
    In_ProcessSoftTimer_callback             0x08002479   Thumb Code     4  parking_detection_processing.o(i.In_ProcessSoftTimer_callback)
    i.Infrared_Init                          0x0800247c   Section        0  infrared_barrier.o(i.Infrared_Init)
    i.Inspection_ProcessSoftTimer_callback   0x080024bc   Section        0  task.o(i.Inspection_ProcessSoftTimer_callback)
    Inspection_ProcessSoftTimer_callback     0x080024bd   Thumb Code     4  task.o(i.Inspection_ProcessSoftTimer_callback)
    i.Interface_init                         0x080024c0   Section        0  lcd_interface_design.o(i.Interface_init)
    i.IsKey1Down                             0x08002614   Section        0  parking_detection_processing.o(i.IsKey1Down)
    IsKey1Down                               0x08002615   Thumb Code    22  parking_detection_processing.o(i.IsKey1Down)
    i.IsKey2Down                             0x08002630   Section        0  parking_detection_processing.o(i.IsKey2Down)
    IsKey2Down                               0x08002631   Thumb Code    22  parking_detection_processing.o(i.IsKey2Down)
    i.IsKey3Down                             0x0800264c   Section        0  parking_detection_processing.o(i.IsKey3Down)
    IsKey3Down                               0x0800264d   Thumb Code    22  parking_detection_processing.o(i.IsKey3Down)
    i.IsKey4Down                             0x08002668   Section        0  parking_detection_processing.o(i.IsKey4Down)
    IsKey4Down                               0x08002669   Thumb Code    22  parking_detection_processing.o(i.IsKey4Down)
    i.IsKey5Down                             0x08002684   Section        0  parking_detection_processing.o(i.IsKey5Down)
    IsKey5Down                               0x08002685   Thumb Code    22  parking_detection_processing.o(i.IsKey5Down)
    i.IsKey6Down                             0x080026a0   Section        0  parking_detection_processing.o(i.IsKey6Down)
    IsKey6Down                               0x080026a1   Thumb Code    22  parking_detection_processing.o(i.IsKey6Down)
    i.IsKey7Down                             0x080026bc   Section        0  parking_detection_processing.o(i.IsKey7Down)
    IsKey7Down                               0x080026bd   Thumb Code    20  parking_detection_processing.o(i.IsKey7Down)
    i.LCD_Clear                              0x080026d4   Section        0  lcd.o(i.LCD_Clear)
    i.LCD_GPIOInit                           0x08002718   Section        0  lcd.o(i.LCD_GPIOInit)
    i.LCD_Init                               0x0800281c   Section        0  lcd.o(i.LCD_Init)
    i.LCD_RESET                              0x08002860   Section        0  lcd.o(i.LCD_RESET)
    i.LCD_SetCursor                          0x08002880   Section        0  lcd.o(i.LCD_SetCursor)
    i.LCD_SetParam                           0x0800288c   Section        0  lcd.o(i.LCD_SetParam)
    i.LCD_SetWindows                         0x080028b8   Section        0  lcd.o(i.LCD_SetWindows)
    i.LCD_WR_DATA                            0x080028d4   Section        0  lcd.o(i.LCD_WR_DATA)
    i.LCD_WriteRAM_Prepare                   0x080028e0   Section        0  lcd.o(i.LCD_WriteRAM_Prepare)
    i.LCD_WriteReg                           0x080028f4   Section        0  lcd.o(i.LCD_WriteReg)
    i.LP_display                             0x08002904   Section        0  lcd_interface_design.o(i.LP_display)
    i.NVIC_Init                              0x0800298c   Section        0  misc.o(i.NVIC_Init)
    i.NVIC_PriorityGroupConfig               0x080029f0   Section        0  misc.o(i.NVIC_PriorityGroupConfig)
    i.Number_recognition_LP                  0x08002a04   Section        0  license_plate_recognition.o(i.Number_recognition_LP)
    i.OV7725_FIFO_GPIO_Config                0x08002ad0   Section        0  ov7725_entrance.o(i.OV7725_FIFO_GPIO_Config)
    OV7725_FIFO_GPIO_Config                  0x08002ad1   Thumb Code   138  ov7725_entrance.o(i.OV7725_FIFO_GPIO_Config)
    i.OV7725_SCCB_GPIO_Config                0x08002b68   Section        0  ov7725sccb_entrance.o(i.OV7725_SCCB_GPIO_Config)
    i.OV7725_SCCB_ReadByte                   0x08002bac   Section        0  ov7725sccb_entrance.o(i.OV7725_SCCB_ReadByte)
    i.OV7725_SCCB_SendByte                   0x08002ca8   Section        0  ov7725sccb_entrance.o(i.OV7725_SCCB_SendByte)
    OV7725_SCCB_SendByte                     0x08002ca9   Thumb Code    78  ov7725sccb_entrance.o(i.OV7725_SCCB_SendByte)
    i.OV7725_SCCB_Start                      0x08002cfc   Section        0  ov7725sccb_entrance.o(i.OV7725_SCCB_Start)
    OV7725_SCCB_Start                        0x08002cfd   Thumb Code    94  ov7725sccb_entrance.o(i.OV7725_SCCB_Start)
    i.OV7725_SCCB_Stop                       0x08002d60   Section        0  ov7725sccb_entrance.o(i.OV7725_SCCB_Stop)
    OV7725_SCCB_Stop                         0x08002d61   Thumb Code    56  ov7725sccb_entrance.o(i.OV7725_SCCB_Stop)
    i.OV7725_SCCB_WaitAck                    0x08002d9c   Section        0  ov7725sccb_entrance.o(i.OV7725_SCCB_WaitAck)
    OV7725_SCCB_WaitAck                      0x08002d9d   Thumb Code    74  ov7725sccb_entrance.o(i.OV7725_SCCB_WaitAck)
    i.OV7725_SCCB_WriteByte                  0x08002dec   Section        0  ov7725sccb_entrance.o(i.OV7725_SCCB_WriteByte)
    i.OV7725_SCCB_delay                      0x08002e2a   Section        0  ov7725sccb_entrance.o(i.OV7725_SCCB_delay)
    OV7725_SCCB_delay                        0x08002e2b   Thumb Code    14  ov7725sccb_entrance.o(i.OV7725_SCCB_delay)
    i.OV7725_VSYNC_GPIO_Config               0x08002e38   Section        0  ov7725_entrance.o(i.OV7725_VSYNC_GPIO_Config)
    OV7725_VSYNC_GPIO_Config                 0x08002e39   Thumb Code   114  ov7725_entrance.o(i.OV7725_VSYNC_GPIO_Config)
    i.OV7725_entr_Brightness                 0x08002eb0   Section        0  ov7725_entrance.o(i.OV7725_entr_Brightness)
    i.OV7725_entr_Color_Saturation           0x08002efe   Section        0  ov7725_entrance.o(i.OV7725_entr_Color_Saturation)
    i.OV7725_entr_Contrast                   0x08002f20   Section        0  ov7725_entrance.o(i.OV7725_entr_Contrast)
    i.OV7725_entr_GPIO_Config                0x08002f36   Section        0  ov7725_entrance.o(i.OV7725_entr_GPIO_Config)
    i.OV7725_entr_Init                       0x08002f48   Section        0  ov7725_entrance.o(i.OV7725_entr_Init)
    i.OV7725_entr_Light_Mode                 0x08002fa0   Section        0  ov7725_entrance.o(i.OV7725_entr_Light_Mode)
    i.OV7725_entr_Special_Effect             0x08003038   Section        0  ov7725_entrance.o(i.OV7725_entr_Special_Effect)
    i.OV7725_entr_Window_Set                 0x080030c2   Section        0  ov7725_entrance.o(i.OV7725_entr_Window_Set)
    i.OV7725_exit_Brightness                 0x0800318c   Section        0  ov7725_exit.o(i.OV7725_exit_Brightness)
    i.OV7725_exit_Color_Saturation           0x080031da   Section        0  ov7725_exit.o(i.OV7725_exit_Color_Saturation)
    i.OV7725_exit_Contrast                   0x080031fc   Section        0  ov7725_exit.o(i.OV7725_exit_Contrast)
    i.OV7725_exit_FIFO_GPIO_Config           0x08003214   Section        0  ov7725_exit.o(i.OV7725_exit_FIFO_GPIO_Config)
    OV7725_exit_FIFO_GPIO_Config             0x08003215   Thumb Code   138  ov7725_exit.o(i.OV7725_exit_FIFO_GPIO_Config)
    i.OV7725_exit_GPIO_Config                0x080032a8   Section        0  ov7725_exit.o(i.OV7725_exit_GPIO_Config)
    i.OV7725_exit_Init                       0x080032bc   Section        0  ov7725_exit.o(i.OV7725_exit_Init)
    i.OV7725_exit_Light_Mode                 0x08003314   Section        0  ov7725_exit.o(i.OV7725_exit_Light_Mode)
    i.OV7725_exit_SCCB_GPIO_Config           0x080033ac   Section        0  ov7725sccb_exit.o(i.OV7725_exit_SCCB_GPIO_Config)
    i.OV7725_exit_SCCB_ReadByte              0x080033f4   Section        0  ov7725sccb_exit.o(i.OV7725_exit_SCCB_ReadByte)
    i.OV7725_exit_SCCB_SendByte              0x080034f0   Section        0  ov7725sccb_exit.o(i.OV7725_exit_SCCB_SendByte)
    OV7725_exit_SCCB_SendByte                0x080034f1   Thumb Code    78  ov7725sccb_exit.o(i.OV7725_exit_SCCB_SendByte)
    i.OV7725_exit_SCCB_Start                 0x08003544   Section        0  ov7725sccb_exit.o(i.OV7725_exit_SCCB_Start)
    OV7725_exit_SCCB_Start                   0x08003545   Thumb Code    94  ov7725sccb_exit.o(i.OV7725_exit_SCCB_Start)
    i.OV7725_exit_SCCB_Stop                  0x080035a8   Section        0  ov7725sccb_exit.o(i.OV7725_exit_SCCB_Stop)
    OV7725_exit_SCCB_Stop                    0x080035a9   Thumb Code    56  ov7725sccb_exit.o(i.OV7725_exit_SCCB_Stop)
    i.OV7725_exit_SCCB_WaitAck               0x080035e4   Section        0  ov7725sccb_exit.o(i.OV7725_exit_SCCB_WaitAck)
    OV7725_exit_SCCB_WaitAck                 0x080035e5   Thumb Code    74  ov7725sccb_exit.o(i.OV7725_exit_SCCB_WaitAck)
    i.OV7725_exit_SCCB_WriteByte             0x08003634   Section        0  ov7725sccb_exit.o(i.OV7725_exit_SCCB_WriteByte)
    i.OV7725_exit_SCCB_delay                 0x08003672   Section        0  ov7725sccb_exit.o(i.OV7725_exit_SCCB_delay)
    OV7725_exit_SCCB_delay                   0x08003673   Thumb Code    14  ov7725sccb_exit.o(i.OV7725_exit_SCCB_delay)
    i.OV7725_exit_Special_Effect             0x08003680   Section        0  ov7725_exit.o(i.OV7725_exit_Special_Effect)
    i.OV7725_exit_VSYNC_GPIO_Config          0x0800370c   Section        0  ov7725_exit.o(i.OV7725_exit_VSYNC_GPIO_Config)
    OV7725_exit_VSYNC_GPIO_Config            0x0800370d   Thumb Code   116  ov7725_exit.o(i.OV7725_exit_VSYNC_GPIO_Config)
    i.OV7725_exit_Window_Set                 0x08003784   Section        0  ov7725_exit.o(i.OV7725_exit_Window_Set)
    i.ParkingDetect                          0x0800384e   Section        0  parking_detection_processing.o(i.ParkingDetect)
    ParkingDetect                            0x0800384f   Thumb Code    60  parking_detection_processing.o(i.ParkingDetect)
    i.Parking_information                    0x0800388c   Section        0  lcd_interface_design.o(i.Parking_information)
    i.Parking_management                     0x08003ac4   Section        0  parking_detection_processing.o(i.Parking_management)
    i.Parking_recommendation                 0x08003d90   Section        0  parking_detection_processing.o(i.Parking_recommendation)
    i.RCC_AHBPeriphClockCmd                  0x08003e34   Section        0  stm32f10x_rcc.o(i.RCC_AHBPeriphClockCmd)
    i.RCC_APB1PeriphClockCmd                 0x08003e4c   Section        0  stm32f10x_rcc.o(i.RCC_APB1PeriphClockCmd)
    i.RCC_APB2PeriphClockCmd                 0x08003e64   Section        0  stm32f10x_rcc.o(i.RCC_APB2PeriphClockCmd)
    i.RCC_GetClocksFreq                      0x08003e7c   Section        0  stm32f10x_rcc.o(i.RCC_GetClocksFreq)
    i.Scaling_Normalization                  0x08003f10   Section        0  license_plate_recognition.o(i.Scaling_Normalization)
    i.SetSysClockTo72                        0x08003fe0   Section        0  system_stm32f10x.o(i.SetSysClockTo72)
    SetSysClockTo72                          0x08003fe1   Thumb Code   160  system_stm32f10x.o(i.SetSysClockTo72)
    i.ShowCP                                 0x08004088   Section        0  lcd_basic_application.o(i.ShowCP)
    i.ShowChar                               0x080041c0   Section        0  lcd_basic_application.o(i.ShowChar)
    i.ShowString                             0x08004358   Section        0  lcd_basic_application.o(i.ShowString)
    i.ShowYW24                               0x080043b0   Section        0  lcd_basic_application.o(i.ShowYW24)
    i.Show_Str                               0x08004464   Section        0  lcd_basic_application.o(i.Show_Str)
    i.Smoke_Init                             0x0800455c   Section        0  smoke_sensor.o(i.Smoke_Init)
    i.SysInit                                0x08004580   Section        0  system.o(i.SysInit)
    i.SysTickInit                            0x080045b4   Section        0  systick.o(i.SysTickInit)
    i.SysTick_Handler                        0x080045ec   Section        0  board.o(i.SysTick_Handler)
    i.SystemInit                             0x08004600   Section        0  system_stm32f10x.o(i.SystemInit)
    i.TIM_Cmd                                0x08004650   Section        0  stm32f10x_tim.o(i.TIM_Cmd)
    i.TIM_OC3Init                            0x08004664   Section        0  stm32f10x_tim.o(i.TIM_OC3Init)
    i.TIM_OC3PreloadConfig                   0x080046e0   Section        0  stm32f10x_tim.o(i.TIM_OC3PreloadConfig)
    i.TIM_OC4Init                            0x080046ec   Section        0  stm32f10x_tim.o(i.TIM_OC4Init)
    i.TIM_OC4PreloadConfig                   0x08004750   Section        0  stm32f10x_tim.o(i.TIM_OC4PreloadConfig)
    i.TIM_SetCompare3                        0x08004764   Section        0  stm32f10x_tim.o(i.TIM_SetCompare3)
    i.TIM_SetCompare4                        0x08004768   Section        0  stm32f10x_tim.o(i.TIM_SetCompare4)
    i.TIM_TimeBaseInit                       0x08004770   Section        0  stm32f10x_tim.o(i.TIM_TimeBaseInit)
    i.TaskInit                               0x0800480c   Section        0  task.o(i.TaskInit)
    i.USART3_IRQHandler                      0x080048f8   Section        0  esp8266.o(i.USART3_IRQHandler)
    i.USART_ClearFlag                        0x0800496c   Section        0  stm32f10x_usart.o(i.USART_ClearFlag)
    i.USART_Cmd                              0x08004972   Section        0  stm32f10x_usart.o(i.USART_Cmd)
    i.USART_GetFlagStatus                    0x08004986   Section        0  stm32f10x_usart.o(i.USART_GetFlagStatus)
    i.USART_GetITStatus                      0x08004994   Section        0  stm32f10x_usart.o(i.USART_GetITStatus)
    i.USART_ITConfig                         0x080049d2   Section        0  stm32f10x_usart.o(i.USART_ITConfig)
    i.USART_Init                             0x08004a04   Section        0  stm32f10x_usart.o(i.USART_Init)
    i.USART_ReceiveData                      0x08004ab0   Section        0  stm32f10x_usart.o(i.USART_ReceiveData)
    i.USART_SendData                         0x08004ab8   Section        0  stm32f10x_usart.o(i.USART_SendData)
    i.USART_printf                           0x08004ac0   Section        0  usart.o(i.USART_printf)
    i.UrgentDetect                           0x08004bbc   Section        0  parking_detection_processing.o(i.UrgentDetect)
    UrgentDetect                             0x08004bbd   Thumb Code    88  parking_detection_processing.o(i.UrgentDetect)
    i.UsartInit                              0x08004c18   Section        0  usart.o(i.UsartInit)
    i.Vehicle_count                          0x08004ca4   Section        0  task.o(i.Vehicle_count)
    Vehicle_count                            0x08004ca5   Thumb Code   246  task.o(i.Vehicle_count)
    i.WIFI_thread_entry                      0x08004da0   Section        0  task.o(i.WIFI_thread_entry)
    WIFI_thread_entry                        0x08004da1   Thumb Code   122  task.o(i.WIFI_thread_entry)
    i.__rt_ffs                               0x08004e5c   Section        0  kservice.o(i.__rt_ffs)
    i._has_defunct_thread                    0x08004ea0   Section        0  idle.o(i._has_defunct_thread)
    _has_defunct_thread                      0x08004ea1   Thumb Code    16  idle.o(i._has_defunct_thread)
    i._msh_exec_cmd                          0x08004eb4   Section        0  msh.o(i._msh_exec_cmd)
    _msh_exec_cmd                            0x08004eb5   Thumb Code   142  msh.o(i._msh_exec_cmd)
    i._rt_thread_init                        0x08004f54   Section        0  thread.o(i._rt_thread_init)
    _rt_thread_init                          0x08004f55   Thumb Code   108  thread.o(i._rt_thread_init)
    i._rt_timer_init                         0x08004fc8   Section        0  timer.o(i._rt_timer_init)
    _rt_timer_init                           0x08004fc9   Thumb Code    38  timer.o(i._rt_timer_init)
    i._rt_timer_remove                       0x08004fee   Section        0  timer.o(i._rt_timer_remove)
    _rt_timer_remove                         0x08004fef   Thumb Code    32  timer.o(i._rt_timer_remove)
    i.alert                                  0x08005010   Section        0  lcd_interface_design.o(i.alert)
    i.bus_fault_track                        0x08005120   Section        0  cpuport.o(i.bus_fault_track)
    bus_fault_track                          0x08005121   Thumb Code   110  cpuport.o(i.bus_fault_track)
    i.button_process_init                    0x08005208   Section        0  parking_detection_processing.o(i.button_process_init)
    i.button_thread_entry                    0x08005270   Section        0  parking_detection_processing.o(i.button_thread_entry)
    i.cmd_free                               0x080053f0   Section        0  msh.o(i.cmd_free)
    i.cmd_ps                                 0x080053fa   Section        0  msh.o(i.cmd_ps)
    i.entr_thread_entry                      0x08005404   Section        0  task.o(i.entr_thread_entry)
    entr_thread_entry                        0x08005405   Thumb Code   166  task.o(i.entr_thread_entry)
    i.exit_thread_entry                      0x080054cc   Section        0  task.o(i.exit_thread_entry)
    exit_thread_entry                        0x080054cd   Thumb Code   112  task.o(i.exit_thread_entry)
    i.finsh_get_prompt                       0x0800554c   Section        0  shell.o(i.finsh_get_prompt)
    i.finsh_set_prompt_mode                  0x080055ac   Section        0  shell.o(i.finsh_set_prompt_mode)
    i.finsh_system_function_init             0x080055c0   Section        0  shell.o(i.finsh_system_function_init)
    i.finsh_system_init                      0x080055cc   Section        0  shell.o(i.finsh_system_init)
    i.finsh_thread_entry                     0x08005660   Section        0  shell.o(i.finsh_thread_entry)
    i.hard_fault_track                       0x080058ec   Section        0  cpuport.o(i.hard_fault_track)
    hard_fault_track                         0x080058ed   Thumb Code    76  cpuport.o(i.hard_fault_track)
    i.hello                                  0x08005964   Section        0  cmd.o(i.hello)
    i.list                                   0x08005984   Section        0  cmd.o(i.list)
    i.list_event                             0x080059d8   Section        0  cmd.o(i.list_event)
    i.list_find_init                         0x08005b08   Section        0  cmd.o(i.list_find_init)
    list_find_init                           0x08005b09   Thumb Code    36  cmd.o(i.list_find_init)
    i.list_get_next                          0x08005b2c   Section        0  cmd.o(i.list_get_next)
    list_get_next                            0x08005b2d   Thumb Code   106  cmd.o(i.list_get_next)
    i.list_mailbox                           0x08005b98   Section        0  cmd.o(i.list_mailbox)
    i.list_mem                               0x08005cd8   Section        0  mem.o(i.list_mem)
    i.list_msgqueue                          0x08005d44   Section        0  cmd.o(i.list_msgqueue)
    i.list_sem                               0x08005e70   Section        0  cmd.o(i.list_sem)
    i.list_thread                            0x08005f90   Section        0  cmd.o(i.list_thread)
    i.list_timer                             0x08006148   Section        0  cmd.o(i.list_timer)
    i.main                                   0x08006288   Section        0  main.o(i.main)
    i.main_thread_entry                      0x08006292   Section        0  components.o(i.main_thread_entry)
    i.mem_manage_fault_track                 0x080062a0   Section        0  cpuport.o(i.mem_manage_fault_track)
    mem_manage_fault_track                   0x080062a1   Thumb Code    98  cpuport.o(i.mem_manage_fault_track)
    i.msh_auto_complete                      0x08006378   Section        0  msh.o(i.msh_auto_complete)
    i.msh_exec                               0x08006424   Section        0  msh.o(i.msh_exec)
    i.msh_help                               0x08006488   Section        0  msh.o(i.msh_help)
    i.msh_is_used                            0x080064f4   Section        0  msh.o(i.msh_is_used)
    i.msh_split                              0x080064f8   Section        0  msh.o(i.msh_split)
    msh_split                                0x080064f9   Thumb Code   170  msh.o(i.msh_split)
    i.object_split                           0x080065c8   Section        0  cmd.o(i.object_split)
    object_split                             0x080065c9   Thumb Code    18  cmd.o(i.object_split)
    i.plug_holes                             0x080065e0   Section        0  mem.o(i.plug_holes)
    plug_holes                               0x080065e1   Thumb Code    80  mem.o(i.plug_holes)
    i.print_number                           0x08006634   Section        0  kservice.o(i.print_number)
    print_number                             0x08006635   Thumb Code   294  kservice.o(i.print_number)
    i.rt_application_init                    0x08006760   Section        0  components.o(i.rt_application_init)
    i.rt_calloc                              0x0800678c   Section        0  mem.o(i.rt_calloc)
    i.rt_components_board_init               0x080067a8   Section        0  components.o(i.rt_components_board_init)
    i.rt_components_init                     0x080067c4   Section        0  components.o(i.rt_components_init)
    i.rt_enter_critical                      0x080067e0   Section        0  scheduler.o(i.rt_enter_critical)
    i.rt_event_create                        0x080067fc   Section        0  ipc.o(i.rt_event_create)
    i.rt_event_recv                          0x0800681c   Section        0  ipc.o(i.rt_event_recv)
    i.rt_event_send                          0x080068da   Section        0  ipc.o(i.rt_event_send)
    i.rt_exit_critical                       0x08006968   Section        0  scheduler.o(i.rt_exit_critical)
    i.rt_free                                0x080069a0   Section        0  mem.o(i.rt_free)
    i.rt_heap_begin_get                      0x08006a64   Section        0  board.o(i.rt_heap_begin_get)
    i.rt_heap_end_get                        0x08006a6c   Section        0  board.o(i.rt_heap_end_get)
    i.rt_hw_board_init                       0x08006a74   Section        0  board.o(i.rt_hw_board_init)
    i.rt_hw_console_getchar                  0x08006a94   Section        0  usart.o(i.rt_hw_console_getchar)
    i.rt_hw_console_output                   0x08006ad8   Section        0  usart.o(i.rt_hw_console_output)
    i.rt_hw_hard_fault_exception             0x08006b24   Section        0  cpuport.o(i.rt_hw_hard_fault_exception)
    i.rt_hw_stack_init                       0x08006d20   Section        0  cpuport.o(i.rt_hw_stack_init)
    i.rt_interrupt_enter                     0x08006d5c   Section        0  irq.o(i.rt_interrupt_enter)
    i.rt_interrupt_leave                     0x08006d78   Section        0  irq.o(i.rt_interrupt_leave)
    i.rt_ipc_list_resume                     0x08006d94   Section        0  ipc.o(i.rt_ipc_list_resume)
    rt_ipc_list_resume                       0x08006d95   Thumb Code    14  ipc.o(i.rt_ipc_list_resume)
    i.rt_ipc_list_resume_all                 0x08006da2   Section        0  ipc.o(i.rt_ipc_list_resume_all)
    rt_ipc_list_resume_all                   0x08006da3   Thumb Code    46  ipc.o(i.rt_ipc_list_resume_all)
    i.rt_ipc_list_suspend                    0x08006dd0   Section        0  ipc.o(i.rt_ipc_list_suspend)
    rt_ipc_list_suspend                      0x08006dd1   Thumb Code    80  ipc.o(i.rt_ipc_list_suspend)
    i.rt_kprintf                             0x08006e20   Section        0  kservice.o(i.rt_kprintf)
    i.rt_list_insert_after                   0x08006e40   Section        0  object.o(i.rt_list_insert_after)
    rt_list_insert_after                     0x08006e41   Thumb Code    14  object.o(i.rt_list_insert_after)
    i.rt_list_insert_after                   0x08006e4e   Section        0  thread.o(i.rt_list_insert_after)
    rt_list_insert_after                     0x08006e4f   Thumb Code    14  thread.o(i.rt_list_insert_after)
    i.rt_list_insert_after                   0x08006e5c   Section        0  timer.o(i.rt_list_insert_after)
    rt_list_insert_after                     0x08006e5d   Thumb Code    14  timer.o(i.rt_list_insert_after)
    i.rt_list_insert_before                  0x08006e6a   Section        0  ipc.o(i.rt_list_insert_before)
    rt_list_insert_before                    0x08006e6b   Thumb Code    14  ipc.o(i.rt_list_insert_before)
    i.rt_list_isempty                        0x08006e78   Section        0  ipc.o(i.rt_list_isempty)
    rt_list_isempty                          0x08006e79   Thumb Code    14  ipc.o(i.rt_list_isempty)
    i.rt_list_isempty                        0x08006e86   Section        0  timer.o(i.rt_list_isempty)
    rt_list_isempty                          0x08006e87   Thumb Code    14  timer.o(i.rt_list_isempty)
    i.rt_list_isempty                        0x08006e94   Section        0  cmd.o(i.rt_list_isempty)
    rt_list_isempty                          0x08006e95   Thumb Code    14  cmd.o(i.rt_list_isempty)
    i.rt_list_len                            0x08006ea2   Section        0  cmd.o(i.rt_list_len)
    rt_list_len                              0x08006ea3   Thumb Code    18  cmd.o(i.rt_list_len)
    i.rt_list_remove                         0x08006eb4   Section        0  object.o(i.rt_list_remove)
    rt_list_remove                           0x08006eb5   Thumb Code    18  object.o(i.rt_list_remove)
    i.rt_list_remove                         0x08006ec6   Section        0  thread.o(i.rt_list_remove)
    rt_list_remove                           0x08006ec7   Thumb Code    18  thread.o(i.rt_list_remove)
    i.rt_malloc                              0x08006ed8   Section        0  mem.o(i.rt_malloc)
    i.rt_memcpy                              0x08006fc8   Section        0  kservice.o(i.rt_memcpy)
    i.rt_memmove                             0x08007012   Section        0  kservice.o(i.rt_memmove)
    i.rt_memset                              0x08007040   Section        0  kservice.o(i.rt_memset)
    i.rt_mq_create                           0x08007084   Section        0  ipc.o(i.rt_mq_create)
    i.rt_mq_delete                           0x080070f4   Section        0  ipc.o(i.rt_mq_delete)
    i.rt_mq_recv                             0x0800710e   Section        0  ipc.o(i.rt_mq_recv)
    i.rt_mq_send                             0x080071f2   Section        0  ipc.o(i.rt_mq_send)
    i.rt_mq_urgent                           0x08007276   Section        0  ipc.o(i.rt_mq_urgent)
    i.rt_object_allocate                     0x080072f4   Section        0  object.o(i.rt_object_allocate)
    i.rt_object_delete                       0x08007340   Section        0  object.o(i.rt_object_delete)
    i.rt_object_detach                       0x08007366   Section        0  object.o(i.rt_object_detach)
    i.rt_object_get_information              0x08007388   Section        0  object.o(i.rt_object_get_information)
    i.rt_object_init                         0x080073ac   Section        0  object.o(i.rt_object_init)
    i.rt_object_is_systemobject              0x080073fc   Section        0  object.o(i.rt_object_is_systemobject)
    i.rt_schedule                            0x0800740c   Section        0  scheduler.o(i.rt_schedule)
    i.rt_schedule_insert_thread              0x08007464   Section        0  scheduler.o(i.rt_schedule_insert_thread)
    i.rt_schedule_remove_thread              0x080074b4   Section        0  scheduler.o(i.rt_schedule_remove_thread)
    i.rt_sem_create                          0x08007500   Section        0  ipc.o(i.rt_sem_create)
    i.rt_sem_init                            0x08007520   Section        0  ipc.o(i.rt_sem_init)
    i.rt_sem_release                         0x08007544   Section        0  ipc.o(i.rt_sem_release)
    i.rt_sem_take                            0x08007580   Section        0  ipc.o(i.rt_sem_take)
    i.rt_show_version                        0x080075f0   Section        0  kservice.o(i.rt_show_version)
    i.rt_strlen                              0x080076a0   Section        0  kservice.o(i.rt_strlen)
    i.rt_strncpy                             0x080076b0   Section        0  kservice.o(i.rt_strncpy)
    i.rt_system_heap_init                    0x080076d8   Section        0  mem.o(i.rt_system_heap_init)
    i.rt_system_scheduler_init               0x08007788   Section        0  scheduler.o(i.rt_system_scheduler_init)
    i.rt_system_scheduler_start              0x080077bc   Section        0  scheduler.o(i.rt_system_scheduler_start)
    i.rt_system_timer_init                   0x080077e4   Section        0  timer.o(i.rt_system_timer_init)
    i.rt_system_timer_thread_init            0x080077fc   Section        0  timer.o(i.rt_system_timer_thread_init)
    i.rt_thread_create                       0x080077fe   Section        0  thread.o(i.rt_thread_create)
    i.rt_thread_exit                         0x08007848   Section        0  thread.o(i.rt_thread_exit)
    i.rt_thread_idle_entry                   0x080078a0   Section        0  idle.o(i.rt_thread_idle_entry)
    rt_thread_idle_entry                     0x080078a1   Thumb Code    24  idle.o(i.rt_thread_idle_entry)
    i.rt_thread_idle_excute                  0x080078bc   Section        0  idle.o(i.rt_thread_idle_excute)
    i.rt_thread_idle_init                    0x08007934   Section        0  idle.o(i.rt_thread_idle_init)
    i.rt_thread_init                         0x0800796c   Section        0  thread.o(i.rt_thread_init)
    i.rt_thread_mdelay                       0x0800799c   Section        0  thread.o(i.rt_thread_mdelay)
    i.rt_thread_resume                       0x080079aa   Section        0  thread.o(i.rt_thread_resume)
    i.rt_thread_self                         0x080079e8   Section        0  thread.o(i.rt_thread_self)
    i.rt_thread_sleep                        0x080079f4   Section        0  thread.o(i.rt_thread_sleep)
    i.rt_thread_startup                      0x08007a34   Section        0  thread.o(i.rt_thread_startup)
    i.rt_thread_suspend                      0x08007a60   Section        0  thread.o(i.rt_thread_suspend)
    i.rt_thread_timeout                      0x08007aa2   Section        0  thread.o(i.rt_thread_timeout)
    i.rt_thread_yield                        0x08007ac4   Section        0  thread.o(i.rt_thread_yield)
    i.rt_tick_from_millisecond               0x08007b24   Section        0  clock.o(i.rt_tick_from_millisecond)
    i.rt_tick_get                            0x08007b58   Section        0  clock.o(i.rt_tick_get)
    i.rt_tick_increase                       0x08007b64   Section        0  clock.o(i.rt_tick_increase)
    i.rt_timer_check                         0x08007b90   Section        0  timer.o(i.rt_timer_check)
    i.rt_timer_control                       0x08007bfc   Section        0  timer.o(i.rt_timer_control)
    i.rt_timer_create                        0x08007c2c   Section        0  timer.o(i.rt_timer_create)
    i.rt_timer_detach                        0x08007c5a   Section        0  timer.o(i.rt_timer_detach)
    i.rt_timer_init                          0x08007c7a   Section        0  timer.o(i.rt_timer_init)
    i.rt_timer_start                         0x08007ca4   Section        0  timer.o(i.rt_timer_start)
    i.rt_timer_stop                          0x08007d44   Section        0  timer.o(i.rt_timer_stop)
    i.rt_vsnprintf                           0x08007d74   Section        0  kservice.o(i.rt_vsnprintf)
    i.rti_board_end                          0x08007fd8   Section        0  components.o(i.rti_board_end)
    rti_board_end                            0x08007fd9   Thumb Code     4  components.o(i.rti_board_end)
    i.rti_board_start                        0x08007fdc   Section        0  components.o(i.rti_board_start)
    rti_board_start                          0x08007fdd   Thumb Code     4  components.o(i.rti_board_start)
    i.rti_end                                0x08007fe0   Section        0  components.o(i.rti_end)
    rti_end                                  0x08007fe1   Thumb Code     4  components.o(i.rti_end)
    i.rti_start                              0x08007fe4   Section        0  components.o(i.rti_start)
    rti_start                                0x08007fe5   Thumb Code     4  components.o(i.rti_start)
    i.rtthread_startup                       0x08007fe8   Section        0  components.o(i.rtthread_startup)
    i.show_wait_queue                        0x08008014   Section        0  cmd.o(i.show_wait_queue)
    show_wait_queue                          0x08008015   Thumb Code    38  cmd.o(i.show_wait_queue)
    i.skip_atoi                              0x08008044   Section        0  kservice.o(i.skip_atoi)
    skip_atoi                                0x08008045   Thumb Code    40  kservice.o(i.skip_atoi)
    i.usage_fault_track                      0x0800806c   Section        0  cpuport.o(i.usage_fault_track)
    usage_fault_track                        0x0800806d   Thumb Code   100  cpuport.o(i.usage_fault_track)
    i.version                                0x0800813c   Section        0  cmd.o(i.version)
    x$fpl$dadd                               0x08008148   Section      336  daddsub_clz.o(x$fpl$dadd)
    _dadd1                                   0x08008159   Thumb Code     0  daddsub_clz.o(x$fpl$dadd)
    x$fpl$dfixu                              0x08008298   Section       90  dfixu.o(x$fpl$dfixu)
    x$fpl$dfltu                              0x080082f2   Section       38  dflt_clz.o(x$fpl$dfltu)
    x$fpl$dmul                               0x08008318   Section      340  dmul.o(x$fpl$dmul)
    x$fpl$dnaninf                            0x0800846c   Section      156  dnaninf.o(x$fpl$dnaninf)
    x$fpl$dretinf                            0x08008508   Section       12  dretinf.o(x$fpl$dretinf)
    x$fpl$dsub                               0x08008514   Section      468  daddsub_clz.o(x$fpl$dsub)
    _dsub1                                   0x08008525   Thumb Code     0  daddsub_clz.o(x$fpl$dsub)
    .constdata                               0x080086e8   Section      290  kservice.o(.constdata)
    x$fpl$usenofp                            0x080086e8   Section        0  usenofp.o(x$fpl$usenofp)
    small_digits                             0x080087e8   Data          17  kservice.o(.constdata)
    large_digits                             0x080087f9   Data          17  kservice.o(.constdata)
    .constdata                               0x0800880a   Section        9  mem.o(.constdata)
    .constdata                               0x08008813   Section        6  cmd.o(.constdata)
    .constdata                               0x08008819   Section        8  cmd.o(.constdata)
    .constdata                               0x08008821   Section       14  cmd.o(.constdata)
    .constdata                               0x0800882f   Section       12  cmd.o(.constdata)
    .constdata                               0x0800883b   Section       18  cmd.o(.constdata)
    .constdata                               0x0800884d   Section        9  cmd.o(.constdata)
    .constdata                               0x08008856   Section       15  cmd.o(.constdata)
    .constdata                               0x08008865   Section       11  cmd.o(.constdata)
    .constdata                               0x08008870   Section       17  cmd.o(.constdata)
    .constdata                               0x08008881   Section       13  cmd.o(.constdata)
    .constdata                               0x0800888e   Section       19  cmd.o(.constdata)
    .constdata                               0x080088a1   Section       14  cmd.o(.constdata)
    .constdata                               0x080088af   Section       20  cmd.o(.constdata)
    .constdata                               0x080088c3   Section       11  cmd.o(.constdata)
    .constdata                               0x080088ce   Section       17  cmd.o(.constdata)
    .constdata                               0x080088df   Section        5  cmd.o(.constdata)
    .constdata                               0x080088e4   Section       11  msh.o(.constdata)
    .constdata                               0x080088ef   Section        9  msh.o(.constdata)
    .constdata                               0x080088f8   Section       11  msh.o(.constdata)
    .constdata                               0x08008903   Section     6318  lcd_basic_application.o(.constdata)
    .constdata                               0x0800a1b1   Section     3630  license_plate_recognition.o(.constdata)
    .conststring                             0x0800afe0   Section       68  cmd.o(.conststring)
    .conststring                             0x0800b024   Section       61  task.o(.conststring)
    .rti_fn.0                                0x0800b064   Section        4  components.o(.rti_fn.0)
    __tagsym$$used                           0x0800b064   Number         0  components.o(.rti_fn.0)
    .rti_fn.0.end                            0x0800b068   Section        4  components.o(.rti_fn.0.end)
    __tagsym$$used                           0x0800b068   Number         0  components.o(.rti_fn.0.end)
    .rti_fn.1.end                            0x0800b06c   Section        4  components.o(.rti_fn.1.end)
    __tagsym$$used                           0x0800b06c   Number         0  components.o(.rti_fn.1.end)
    .rti_fn.6                                0x0800b070   Section        4  lcd.o(.rti_fn.6)
    __tagsym$$used                           0x0800b070   Number         0  lcd.o(.rti_fn.6)
    .rti_fn.6                                0x0800b074   Section        4  shell.o(.rti_fn.6)
    __tagsym$$used                           0x0800b074   Number         0  shell.o(.rti_fn.6)
    .rti_fn.6                                0x0800b078   Section        4  parking_detection_processing.o(.rti_fn.6)
    __tagsym$$used                           0x0800b078   Number         0  parking_detection_processing.o(.rti_fn.6)
    .rti_fn.6.end                            0x0800b07c   Section        4  components.o(.rti_fn.6.end)
    __tagsym$$used                           0x0800b07c   Number         0  components.o(.rti_fn.6.end)
    FSymTab                                  0x0800b080   Section        8  mem.o(FSymTab)
    __tagsym$$used                           0x0800b080   Number         0  mem.o(FSymTab)
    FSymTab                                  0x0800b088   Section      128  cmd.o(FSymTab)
    __tagsym$$used                           0x0800b088   Number         0  cmd.o(FSymTab)
    __tagsym$$used                           0x0800b090   Number         0  cmd.o(FSymTab)
    __tagsym$$used                           0x0800b098   Number         0  cmd.o(FSymTab)
    __tagsym$$used                           0x0800b0a0   Number         0  cmd.o(FSymTab)
    __tagsym$$used                           0x0800b0a8   Number         0  cmd.o(FSymTab)
    __tagsym$$used                           0x0800b0b0   Number         0  cmd.o(FSymTab)
    __tagsym$$used                           0x0800b0b8   Number         0  cmd.o(FSymTab)
    __tagsym$$used                           0x0800b0c0   Number         0  cmd.o(FSymTab)
    __tagsym$$used                           0x0800b0c8   Number         0  cmd.o(FSymTab)
    __tagsym$$used                           0x0800b0d0   Number         0  cmd.o(FSymTab)
    __tagsym$$used                           0x0800b0d8   Number         0  cmd.o(FSymTab)
    __tagsym$$used                           0x0800b0e0   Number         0  cmd.o(FSymTab)
    __tagsym$$used                           0x0800b0e8   Number         0  cmd.o(FSymTab)
    __tagsym$$used                           0x0800b0f0   Number         0  cmd.o(FSymTab)
    __tagsym$$used                           0x0800b0f8   Number         0  cmd.o(FSymTab)
    __tagsym$$used                           0x0800b100   Number         0  cmd.o(FSymTab)
    FSymTab                                  0x0800b108   Section       24  msh.o(FSymTab)
    __tagsym$$used                           0x0800b108   Number         0  msh.o(FSymTab)
    __tagsym$$used                           0x0800b110   Number         0  msh.o(FSymTab)
    __tagsym$$used                           0x0800b118   Number         0  msh.o(FSymTab)
    .data                                    0x20000000   Section       20  system_stm32f10x.o(.data)
    .data                                    0x20000014   Section       20  stm32f10x_rcc.o(.data)
    ADCPrescTable                            0x20000014   Data           4  stm32f10x_rcc.o(.data)
    APBAHBPrescTable                         0x20000018   Data          16  stm32f10x_rcc.o(.data)
    .data                                    0x20000028   Section        1  esp8266.o(.data)
    i                                        0x20000028   Data           1  esp8266.o(.data)
    .data                                    0x2000002a   Section        2  lcd.o(.data)
    .data                                    0x2000002c   Section        2  lcd.o(.data)
    .data                                    0x2000002e   Section      156  ov7725_entrance.o(.data)
    .data                                    0x200000ca   Section      156  ov7725_exit.o(.data)
    .data                                    0x20000168   Section        4  clock.o(.data)
    rt_tick                                  0x20000168   Data           4  clock.o(.data)
    .data                                    0x2000016c   Section        1  irq.o(.data)
    .data                                    0x20000170   Section       24  mem.o(.data)
    heap_ptr                                 0x20000170   Data           4  mem.o(.data)
    heap_end                                 0x20000174   Data           4  mem.o(.data)
    lfree                                    0x20000178   Data           4  mem.o(.data)
    mem_size_aligned                         0x2000017c   Data           4  mem.o(.data)
    used_mem                                 0x20000180   Data           4  mem.o(.data)
    max_mem                                  0x20000184   Data           4  mem.o(.data)
    .data                                    0x20000188   Section       96  object.o(.data)
    rt_object_container                      0x20000188   Data          96  object.o(.data)
    .data                                    0x200001e8   Section       20  scheduler.o(.data)
    rt_scheduler_lock_nest                   0x200001ea   Data           2  scheduler.o(.data)
    .data                                    0x200001fc   Section       12  timer.o(.data)
    random_nr                                0x200001fc   Data           4  timer.o(.data)
    rt_timer_list                            0x20000200   Data           8  timer.o(.data)
    .data                                    0x20000208   Section        4  cpuport.o(.data)
    rt_exception_hook                        0x20000208   Data           4  cpuport.o(.data)
    .data                                    0x2000020c   Section        4  cpuport.o(.data)
    .data                                    0x20000210   Section        4  cpuport.o(.data)
    .data                                    0x20000214   Section        4  cpuport.o(.data)
    .data                                    0x20000218   Section       24  shell.o(.data)
    finsh_prompt_custom                      0x20000228   Data           4  shell.o(.data)
    .data                                    0x20000230   Section       16  license_plate_recognition.o(.data)
    boundary                                 0x20000238   Data           8  license_plate_recognition.o(.data)
    .data                                    0x20000240   Section       17  parking_detection_processing.o(.data)
    PS_A_Recommend                           0x20000240   Data           1  parking_detection_processing.o(.data)
    PS_B_Recommend                           0x20000241   Data           1  parking_detection_processing.o(.data)
    Last_PSA_Recommend                       0x20000242   Data           1  parking_detection_processing.o(.data)
    Last_PSB_Recommend                       0x20000243   Data           1  parking_detection_processing.o(.data)
    Last_PSA_use                             0x20000244   Data           1  parking_detection_processing.o(.data)
    Last_PSB_use                             0x20000245   Data           1  parking_detection_processing.o(.data)
    button_mq                                0x20000248   Data           4  parking_detection_processing.o(.data)
    Smoke                                    0x2000024c   Data           5  parking_detection_processing.o(.data)
    .data                                    0x20000254   Section      160  task.o(.data)
    exit_num                                 0x20000254   Data           2  task.o(.data)
    entr_num                                 0x20000256   Data           2  task.o(.data)
    Inspection_ProcessSoftTimer              0x2000025c   Data           4  task.o(.data)
    message_thread                           0x20000260   Data           4  task.o(.data)
    .data                                    0x200002f4   Section        4  main.o(.data)
    .data                                    0x200002f8   Section        4  main.o(.data)
    .data                                    0x200002fc   Section        4  main.o(.data)
    .data                                    0x20000300   Section        4  main.o(.data)
    .bss                                     0x20000304   Section     1026  esp8266.o(.bss)
    .bss                                     0x20000706   Section       14  lcd.o(.bss)
    .bss                                     0x20000714   Section      416  idle.o(.bss)
    idle                                     0x20000714   Data         144  idle.o(.bss)
    rt_thread_stack                          0x200007a4   Data         256  idle.o(.bss)
    idle_hook_list                           0x200008a4   Data          16  idle.o(.bss)
    .bss                                     0x200008b4   Section      128  kservice.o(.bss)
    rt_log_buf                               0x200008b4   Data         128  kservice.o(.bss)
    .bss                                     0x20000934   Section       40  mem.o(.bss)
    heap_sem                                 0x20000934   Data          40  mem.o(.bss)
    .bss                                     0x2000095c   Section       64  scheduler.o(.bss)
    .bss                                     0x2000099c   Section      129  shell.o(.bss)
    finsh_prompt                             0x2000099c   Data         129  shell.o(.bss)
    .bss                                     0x20000a1d   Section    15150  license_plate_recognition.o(.bss)
    cp_xp                                    0x20000a1d   Data       15000  license_plate_recognition.o(.bss)
    k                                        0x200044b5   Data         150  license_plate_recognition.o(.bss)
    .bss                                     0x2000454c   Section      112  parking_detection_processing.o(.bss)
    s_tBtnKey1                               0x2000454c   Data          16  parking_detection_processing.o(.bss)
    s_tBtnKey2                               0x2000455c   Data          16  parking_detection_processing.o(.bss)
    s_tBtnKey3                               0x2000456c   Data          16  parking_detection_processing.o(.bss)
    s_tBtnKey4                               0x2000457c   Data          16  parking_detection_processing.o(.bss)
    s_tBtnKey5                               0x2000458c   Data          16  parking_detection_processing.o(.bss)
    s_tBtnKey6                               0x2000459c   Data          16  parking_detection_processing.o(.bss)
    s_tBtnKey7                               0x200045ac   Data          16  parking_detection_processing.o(.bss)
    .bss                                     0x200045bc   Section    32768  board.o(.bss)
    rt_heap                                  0x200045bc   Data       32768  board.o(.bss)
    .bss                                     0x2000c5bc   Section       96  libspace.o(.bss)
    HEAP                                     0x2000c620   Section      512  startup_stm32f10x_hd.o(HEAP)
    Heap_Mem                                 0x2000c620   Data         512  startup_stm32f10x_hd.o(HEAP)
    STACK                                    0x2000c820   Section     1024  startup_stm32f10x_hd.o(STACK)
    Stack_Mem                                0x2000c820   Data        1024  startup_stm32f10x_hd.o(STACK)
    __initial_sp                             0x2000cc20   Data           0  startup_stm32f10x_hd.o(STACK)

    Global Symbols

    Symbol Name                              Value     Ov Type        Size  Object(Section)

    BuildAttributes$$THM_ISAv4$P$D$K$B$S$PE$A:L22UL41UL21$X:L11$S22US41US21$IEEE1$IW$USESV6$~STKCKD$USESV7$~SHL$OSPACE$ROPI$EBA8$UX$STANDARDLIB$REQ8$PRES8$EABIv2 0x00000000   Number         0  anon$$obj.o ABSOLUTE
    __ARM_use_no_argv                        0x00000000   Number         0  main.o ABSOLUTE
    __ARM_exceptions_init                     - Undefined Weak Reference
    __alloca_initialize                       - Undefined Weak Reference
    __arm_fini_                               - Undefined Weak Reference
    __arm_preinit_                            - Undefined Weak Reference
    __cpp_initialize__aeabi_                  - Undefined Weak Reference
    __cxa_finalize                            - Undefined Weak Reference
    __rt_locale                               - Undefined Weak Reference
    __sigvec_lookup                           - Undefined Weak Reference
    _atexit_init                              - Undefined Weak Reference
    _call_atexit_fns                          - Undefined Weak Reference
    _clock_init                               - Undefined Weak Reference
    _fp_trap_init                             - Undefined Weak Reference
    _fp_trap_shutdown                         - Undefined Weak Reference
    _get_lc_collate                           - Undefined Weak Reference
    _get_lc_ctype                             - Undefined Weak Reference
    _get_lc_monetary                          - Undefined Weak Reference
    _get_lc_numeric                           - Undefined Weak Reference
    _get_lc_time                              - Undefined Weak Reference
    _getenv_init                              - Undefined Weak Reference
    _handle_redirection                       - Undefined Weak Reference
    _init_alloc                               - Undefined Weak Reference
    _init_user_alloc                          - Undefined Weak Reference
    _initio                                   - Undefined Weak Reference
    _printf_mbtowc                            - Undefined Weak Reference
    _printf_post_padding                      - Undefined Weak Reference
    _printf_pre_padding                       - Undefined Weak Reference
    _printf_truncate_signed                   - Undefined Weak Reference
    _printf_truncate_unsigned                 - Undefined Weak Reference
    _rand_init                                - Undefined Weak Reference
    _signal_finish                            - Undefined Weak Reference
    _signal_init                              - Undefined Weak Reference
    _terminate_alloc                          - Undefined Weak Reference
    _terminate_user_alloc                     - Undefined Weak Reference
    _terminateio                              - Undefined Weak Reference
    __Vectors_Size                           0x00000130   Number         0  startup_stm32f10x_hd.o ABSOLUTE
    __Vectors                                0x08000000   Data           4  startup_stm32f10x_hd.o(RESET)
    __Vectors_End                            0x08000130   Data           0  startup_stm32f10x_hd.o(RESET)
    __main                                   0x08000131   Thumb Code     8  __main.o(!!!main)
    __scatterload                            0x08000139   Thumb Code     0  __scatter.o(!!!scatter)
    __scatterload_rt2                        0x08000139   Thumb Code    44  __scatter.o(!!!scatter)
    __scatterload_rt2_thumb_only             0x08000139   Thumb Code     0  __scatter.o(!!!scatter)
    __scatterload_null                       0x08000147   Thumb Code     0  __scatter.o(!!!scatter)
    __decompress                             0x0800016d   Thumb Code    90  __dczerorl2.o(!!dczerorl2)
    __decompress1                            0x0800016d   Thumb Code     0  __dczerorl2.o(!!dczerorl2)
    __scatterload_zeroinit                   0x080001c9   Thumb Code    28  __scatter_zi.o(!!handler_zi)
    _printf_d                                0x080001e5   Thumb Code     0  _printf_d.o(.ARM.Collect$$_printf_percent$$00000009)
    _printf_percent                          0x080001e5   Thumb Code     0  _printf_percent.o(.ARM.Collect$$_printf_percent$$00000000)
    _printf_c                                0x080001eb   Thumb Code     0  _printf_c.o(.ARM.Collect$$_printf_percent$$00000013)
    _printf_s                                0x080001f1   Thumb Code     0  _printf_s.o(.ARM.Collect$$_printf_percent$$00000014)
    _printf_percent_end                      0x080001f7   Thumb Code     0  _printf_percent_end.o(.ARM.Collect$$_printf_percent$$00000017)
    __rt_lib_init                            0x080001fb   Thumb Code     0  libinit.o(.ARM.Collect$$libinit$$00000000)
    __rt_lib_init_alloca_1                   0x080001fd   Thumb Code     0  libinit2.o(.ARM.Collect$$libinit$$0000002E)
    __rt_lib_init_argv_1                     0x080001fd   Thumb Code     0  libinit2.o(.ARM.Collect$$libinit$$0000002C)
    __rt_lib_init_atexit_1                   0x080001fd   Thumb Code     0  libinit2.o(.ARM.Collect$$libinit$$0000001B)
    __rt_lib_init_clock_1                    0x080001fd   Thumb Code     0  libinit2.o(.ARM.Collect$$libinit$$00000021)
    __rt_lib_init_cpp_1                      0x080001fd   Thumb Code     0  libinit2.o(.ARM.Collect$$libinit$$00000032)
    __rt_lib_init_exceptions_1               0x080001fd   Thumb Code     0  libinit2.o(.ARM.Collect$$libinit$$00000030)
    __rt_lib_init_fp_1                       0x080001fd   Thumb Code     0  libinit2.o(.ARM.Collect$$libinit$$00000002)
    __rt_lib_init_fp_trap_1                  0x080001fd   Thumb Code     0  libinit2.o(.ARM.Collect$$libinit$$0000001F)
    __rt_lib_init_getenv_1                   0x080001fd   Thumb Code     0  libinit2.o(.ARM.Collect$$libinit$$00000023)
    __rt_lib_init_heap_1                     0x080001fd   Thumb Code     0  libinit2.o(.ARM.Collect$$libinit$$0000000A)
    __rt_lib_init_lc_collate_1               0x080001fd   Thumb Code     0  libinit2.o(.ARM.Collect$$libinit$$00000011)
    __rt_lib_init_lc_ctype_1                 0x080001fd   Thumb Code     0  libinit2.o(.ARM.Collect$$libinit$$00000013)
    __rt_lib_init_lc_monetary_1              0x080001fd   Thumb Code     0  libinit2.o(.ARM.Collect$$libinit$$00000015)
    __rt_lib_init_lc_numeric_1               0x080001fd   Thumb Code     0  libinit2.o(.ARM.Collect$$libinit$$00000017)
    __rt_lib_init_lc_time_1                  0x080001fd   Thumb Code     0  libinit2.o(.ARM.Collect$$libinit$$00000019)
    __rt_lib_init_preinit_1                  0x080001fd   Thumb Code     0  libinit2.o(.ARM.Collect$$libinit$$00000004)
    __rt_lib_init_rand_1                     0x080001fd   Thumb Code     0  libinit2.o(.ARM.Collect$$libinit$$0000000E)
    __rt_lib_init_return                     0x080001fd   Thumb Code     0  libinit2.o(.ARM.Collect$$libinit$$00000033)
    __rt_lib_init_signal_1                   0x080001fd   Thumb Code     0  libinit2.o(.ARM.Collect$$libinit$$0000001D)
    __rt_lib_init_stdio_1                    0x080001fd   Thumb Code     0  libinit2.o(.ARM.Collect$$libinit$$00000025)
    __rt_lib_init_user_alloc_1               0x080001fd   Thumb Code     0  libinit2.o(.ARM.Collect$$libinit$$0000000C)
    __rt_lib_shutdown                        0x080001ff   Thumb Code     0  libshutdown.o(.ARM.Collect$$libshutdown$$00000000)
    __rt_lib_shutdown_cpp_1                  0x08000201   Thumb Code     0  libshutdown2.o(.ARM.Collect$$libshutdown$$00000004)
    __rt_lib_shutdown_fini_1                 0x08000201   Thumb Code     0  libshutdown2.o(.ARM.Collect$$libshutdown$$00000002)
    __rt_lib_shutdown_fp_trap_1              0x08000201   Thumb Code     0  libshutdown2.o(.ARM.Collect$$libshutdown$$00000009)
    __rt_lib_shutdown_heap_1                 0x08000201   Thumb Code     0  libshutdown2.o(.ARM.Collect$$libshutdown$$00000011)
    __rt_lib_shutdown_return                 0x08000201   Thumb Code     0  libshutdown2.o(.ARM.Collect$$libshutdown$$00000012)
    __rt_lib_shutdown_signal_1               0x08000201   Thumb Code     0  libshutdown2.o(.ARM.Collect$$libshutdown$$0000000C)
    __rt_lib_shutdown_stdio_1                0x08000201   Thumb Code     0  libshutdown2.o(.ARM.Collect$$libshutdown$$00000006)
    __rt_lib_shutdown_user_alloc_1           0x08000201   Thumb Code     0  libshutdown2.o(.ARM.Collect$$libshutdown$$0000000E)
    __rt_entry                               0x08000203   Thumb Code     0  __rtentry.o(.ARM.Collect$$rtentry$$00000000)
    __rt_entry_presh_1                       0x08000203   Thumb Code     0  __rtentry2.o(.ARM.Collect$$rtentry$$00000002)
    __rt_entry_sh                            0x08000203   Thumb Code     0  __rtentry4.o(.ARM.Collect$$rtentry$$00000004)
    __rt_entry_li                            0x08000209   Thumb Code     0  __rtentry2.o(.ARM.Collect$$rtentry$$0000000A)
    __rt_entry_postsh_1                      0x08000209   Thumb Code     0  __rtentry2.o(.ARM.Collect$$rtentry$$00000009)
    __rt_entry_main                          0x0800020d   Thumb Code     0  __rtentry2.o(.ARM.Collect$$rtentry$$0000000D)
    __rt_entry_postli_1                      0x0800020d   Thumb Code     0  __rtentry2.o(.ARM.Collect$$rtentry$$0000000C)
    __rt_exit                                0x08000215   Thumb Code     0  rtexit.o(.ARM.Collect$$rtexit$$00000000)
    __rt_exit_ls                             0x08000217   Thumb Code     0  rtexit2.o(.ARM.Collect$$rtexit$$00000003)
    __rt_exit_prels_1                        0x08000217   Thumb Code     0  rtexit2.o(.ARM.Collect$$rtexit$$00000002)
    __rt_exit_exit                           0x0800021b   Thumb Code     0  rtexit2.o(.ARM.Collect$$rtexit$$00000004)
    Reset_Handler                            0x08000221   Thumb Code     8  startup_stm32f10x_hd.o(.text)
    NMI_Handler                              0x08000229   Thumb Code     2  startup_stm32f10x_hd.o(.text)
    MemManage_Handler                        0x0800022d   Thumb Code     2  startup_stm32f10x_hd.o(.text)
    BusFault_Handler                         0x0800022f   Thumb Code     2  startup_stm32f10x_hd.o(.text)
    UsageFault_Handler                       0x08000231   Thumb Code     2  startup_stm32f10x_hd.o(.text)
    SVC_Handler                              0x08000233   Thumb Code     2  startup_stm32f10x_hd.o(.text)
    DebugMon_Handler                         0x08000235   Thumb Code     2  startup_stm32f10x_hd.o(.text)
    ADC1_2_IRQHandler                        0x0800023b   Thumb Code     0  startup_stm32f10x_hd.o(.text)
    ADC3_IRQHandler                          0x0800023b   Thumb Code     0  startup_stm32f10x_hd.o(.text)
    CAN1_RX1_IRQHandler                      0x0800023b   Thumb Code     0  startup_stm32f10x_hd.o(.text)
    CAN1_SCE_IRQHandler                      0x0800023b   Thumb Code     0  startup_stm32f10x_hd.o(.text)
    DMA1_Channel1_IRQHandler                 0x0800023b   Thumb Code     0  startup_stm32f10x_hd.o(.text)
    DMA1_Channel2_IRQHandler                 0x0800023b   Thumb Code     0  startup_stm32f10x_hd.o(.text)
    DMA1_Channel3_IRQHandler                 0x0800023b   Thumb Code     0  startup_stm32f10x_hd.o(.text)
    DMA1_Channel4_IRQHandler                 0x0800023b   Thumb Code     0  startup_stm32f10x_hd.o(.text)
    DMA1_Channel5_IRQHandler                 0x0800023b   Thumb Code     0  startup_stm32f10x_hd.o(.text)
    DMA1_Channel6_IRQHandler                 0x0800023b   Thumb Code     0  startup_stm32f10x_hd.o(.text)
    DMA1_Channel7_IRQHandler                 0x0800023b   Thumb Code     0  startup_stm32f10x_hd.o(.text)
    DMA2_Channel1_IRQHandler                 0x0800023b   Thumb Code     0  startup_stm32f10x_hd.o(.text)
    DMA2_Channel2_IRQHandler                 0x0800023b   Thumb Code     0  startup_stm32f10x_hd.o(.text)
    DMA2_Channel3_IRQHandler                 0x0800023b   Thumb Code     0  startup_stm32f10x_hd.o(.text)
    DMA2_Channel4_5_IRQHandler               0x0800023b   Thumb Code     0  startup_stm32f10x_hd.o(.text)
    EXTI0_IRQHandler                         0x0800023b   Thumb Code     0  startup_stm32f10x_hd.o(.text)
    EXTI1_IRQHandler                         0x0800023b   Thumb Code     0  startup_stm32f10x_hd.o(.text)
    EXTI2_IRQHandler                         0x0800023b   Thumb Code     0  startup_stm32f10x_hd.o(.text)
    EXTI3_IRQHandler                         0x0800023b   Thumb Code     0  startup_stm32f10x_hd.o(.text)
    EXTI4_IRQHandler                         0x0800023b   Thumb Code     0  startup_stm32f10x_hd.o(.text)
    FLASH_IRQHandler                         0x0800023b   Thumb Code     0  startup_stm32f10x_hd.o(.text)
    FSMC_IRQHandler                          0x0800023b   Thumb Code     0  startup_stm32f10x_hd.o(.text)
    I2C1_ER_IRQHandler                       0x0800023b   Thumb Code     0  startup_stm32f10x_hd.o(.text)
    I2C1_EV_IRQHandler                       0x0800023b   Thumb Code     0  startup_stm32f10x_hd.o(.text)
    I2C2_ER_IRQHandler                       0x0800023b   Thumb Code     0  startup_stm32f10x_hd.o(.text)
    I2C2_EV_IRQHandler                       0x0800023b   Thumb Code     0  startup_stm32f10x_hd.o(.text)
    PVD_IRQHandler                           0x0800023b   Thumb Code     0  startup_stm32f10x_hd.o(.text)
    RCC_IRQHandler                           0x0800023b   Thumb Code     0  startup_stm32f10x_hd.o(.text)
    RTCAlarm_IRQHandler                      0x0800023b   Thumb Code     0  startup_stm32f10x_hd.o(.text)
    RTC_IRQHandler                           0x0800023b   Thumb Code     0  startup_stm32f10x_hd.o(.text)
    SDIO_IRQHandler                          0x0800023b   Thumb Code     0  startup_stm32f10x_hd.o(.text)
    SPI1_IRQHandler                          0x0800023b   Thumb Code     0  startup_stm32f10x_hd.o(.text)
    SPI2_IRQHandler                          0x0800023b   Thumb Code     0  startup_stm32f10x_hd.o(.text)
    SPI3_IRQHandler                          0x0800023b   Thumb Code     0  startup_stm32f10x_hd.o(.text)
    TAMPER_IRQHandler                        0x0800023b   Thumb Code     0  startup_stm32f10x_hd.o(.text)
    TIM1_BRK_IRQHandler                      0x0800023b   Thumb Code     0  startup_stm32f10x_hd.o(.text)
    TIM1_CC_IRQHandler                       0x0800023b   Thumb Code     0  startup_stm32f10x_hd.o(.text)
    TIM1_TRG_COM_IRQHandler                  0x0800023b   Thumb Code     0  startup_stm32f10x_hd.o(.text)
    TIM1_UP_IRQHandler                       0x0800023b   Thumb Code     0  startup_stm32f10x_hd.o(.text)
    TIM2_IRQHandler                          0x0800023b   Thumb Code     0  startup_stm32f10x_hd.o(.text)
    TIM3_IRQHandler                          0x0800023b   Thumb Code     0  startup_stm32f10x_hd.o(.text)
    TIM4_IRQHandler                          0x0800023b   Thumb Code     0  startup_stm32f10x_hd.o(.text)
    TIM5_IRQHandler                          0x0800023b   Thumb Code     0  startup_stm32f10x_hd.o(.text)
    TIM6_IRQHandler                          0x0800023b   Thumb Code     0  startup_stm32f10x_hd.o(.text)
    TIM7_IRQHandler                          0x0800023b   Thumb Code     0  startup_stm32f10x_hd.o(.text)
    TIM8_BRK_IRQHandler                      0x0800023b   Thumb Code     0  startup_stm32f10x_hd.o(.text)
    TIM8_CC_IRQHandler                       0x0800023b   Thumb Code     0  startup_stm32f10x_hd.o(.text)
    TIM8_TRG_COM_IRQHandler                  0x0800023b   Thumb Code     0  startup_stm32f10x_hd.o(.text)
    TIM8_UP_IRQHandler                       0x0800023b   Thumb Code     0  startup_stm32f10x_hd.o(.text)
    UART4_IRQHandler                         0x0800023b   Thumb Code     0  startup_stm32f10x_hd.o(.text)
    UART5_IRQHandler                         0x0800023b   Thumb Code     0  startup_stm32f10x_hd.o(.text)
    USART1_IRQHandler                        0x0800023b   Thumb Code     0  startup_stm32f10x_hd.o(.text)
    USART2_IRQHandler                        0x0800023b   Thumb Code     0  startup_stm32f10x_hd.o(.text)
    USBWakeUp_IRQHandler                     0x0800023b   Thumb Code     0  startup_stm32f10x_hd.o(.text)
    USB_HP_CAN1_TX_IRQHandler                0x0800023b   Thumb Code     0  startup_stm32f10x_hd.o(.text)
    USB_LP_CAN1_RX0_IRQHandler               0x0800023b   Thumb Code     0  startup_stm32f10x_hd.o(.text)
    WWDG_IRQHandler                          0x0800023b   Thumb Code     0  startup_stm32f10x_hd.o(.text)
    __user_initial_stackheap                 0x0800023d   Thumb Code     0  startup_stm32f10x_hd.o(.text)
    rt_hw_interrupt_disable                  0x08000261   Thumb Code     8  context_rvds.o(.text)
    rt_hw_interrupt_enable                   0x08000269   Thumb Code     6  context_rvds.o(.text)
    rt_hw_context_switch                     0x0800026f   Thumb Code    32  context_rvds.o(.text)
    rt_hw_context_switch_interrupt           0x0800026f   Thumb Code     0  context_rvds.o(.text)
    PendSV_Handler                           0x0800028f   Thumb Code    60  context_rvds.o(.text)
    rt_hw_context_switch_to                  0x080002cb   Thumb Code    58  context_rvds.o(.text)
    rt_hw_interrupt_thread_switch            0x08000305   Thumb Code     2  context_rvds.o(.text)
    HardFault_Handler                        0x08000307   Thumb Code    52  context_rvds.o(.text)
    __2sprintf                               0x08000355   Thumb Code    34  noretval__2sprintf.o(.text)
    __printf                                 0x0800037d   Thumb Code   104  __printf.o(.text)
    _printf_str                              0x080003e5   Thumb Code    82  _printf_str.o(.text)
    _printf_int_dec                          0x08000439   Thumb Code   104  _printf_dec.o(.text)
    strstr                                   0x080004b1   Thumb Code    36  strstr.o(.text)
    strcpy                                   0x080004d5   Thumb Code    72  strcpy.o(.text)
    strlen                                   0x0800051d   Thumb Code    62  strlen.o(.text)
    strncmp                                  0x0800055b   Thumb Code   150  strncmp.o(.text)
    strcat                                   0x080005f1   Thumb Code    24  strcat.o(.text)
    __aeabi_memcpy4                          0x08000609   Thumb Code     0  rt_memcpy_w.o(.text)
    __aeabi_memcpy8                          0x08000609   Thumb Code     0  rt_memcpy_w.o(.text)
    __rt_memcpy_w                            0x08000609   Thumb Code   100  rt_memcpy_w.o(.text)
    _memcpy_lastbytes_aligned                0x08000651   Thumb Code     0  rt_memcpy_w.o(.text)
    __aeabi_memclr                           0x0800066d   Thumb Code     0  rt_memclr.o(.text)
    __rt_memclr                              0x0800066d   Thumb Code    68  rt_memclr.o(.text)
    _memset                                  0x08000671   Thumb Code     0  rt_memclr.o(.text)
    __aeabi_memclr4                          0x080006b1   Thumb Code     0  rt_memclr_w.o(.text)
    __aeabi_memclr8                          0x080006b1   Thumb Code     0  rt_memclr_w.o(.text)
    __rt_memclr_w                            0x080006b1   Thumb Code    78  rt_memclr_w.o(.text)
    _memset_w                                0x080006b5   Thumb Code     0  rt_memclr_w.o(.text)
    strncpy                                  0x080006ff   Thumb Code    86  strncpy.o(.text)
    strcmp                                   0x08000755   Thumb Code   128  strcmpv7m.o(.text)
    __use_two_region_memory                  0x080007d5   Thumb Code     2  heapauxi.o(.text)
    __rt_heap_escrow$2region                 0x080007d7   Thumb Code     2  heapauxi.o(.text)
    __rt_heap_expand$2region                 0x080007d9   Thumb Code     2  heapauxi.o(.text)
    _printf_int_common                       0x080007db   Thumb Code   178  _printf_intcommon.o(.text)
    _printf_char_common                      0x08000897   Thumb Code    32  _printf_char_common.o(.text)
    _sputc                                   0x080008bd   Thumb Code    10  _sputc.o(.text)
    _printf_cs_common                        0x080008c7   Thumb Code    20  _printf_char.o(.text)
    _printf_char                             0x080008db   Thumb Code    16  _printf_char.o(.text)
    _printf_string                           0x080008eb   Thumb Code     8  _printf_char.o(.text)
    __user_setup_stackheap                   0x080008f3   Thumb Code    74  sys_stackheap_outer.o(.text)
    exit                                     0x0800093d   Thumb Code    18  exit.o(.text)
    __user_libspace                          0x08000951   Thumb Code     8  libspace.o(.text)
    __user_perproc_libspace                  0x08000951   Thumb Code     0  libspace.o(.text)
    __user_perthread_libspace                0x08000951   Thumb Code     0  libspace.o(.text)
    _sys_exit                                0x08000959   Thumb Code     8  sys_exit.o(.text)
    __I$use$semihosting                      0x08000965   Thumb Code     0  use_no_semi.o(.text)
    __use_no_semihosting_swi                 0x08000965   Thumb Code     2  use_no_semi.o(.text)
    __semihosting_library_function           0x08000967   Thumb Code     0  indicate_semi.o(.text)
    main                                     0x08000967   Thumb Code    10  components.o(i.$Sub$$main)
    Area_bin                                 0x08000971   Thumb Code   406  license_plate_recognition.o(i.Area_bin)
    Areap_LP                                 0x08000b2d   Thumb Code   700  license_plate_recognition.o(i.Areap_LP)
    ButtonInit                               0x08000e65   Thumb Code    18  parking_detection_processing.o(i.ButtonInit)
    ButtonProj                               0x08000e79   Thumb Code    60  parking_detection_processing.o(i.ButtonProj)
    Camera_settings                          0x08000f85   Thumb Code   114  system.o(i.Camera_settings)
    Character_matching                       0x08000ff9   Thumb Code   290  license_plate_recognition.o(i.Character_matching)
    Character_segmentation                   0x08001129   Thumb Code   832  license_plate_recognition.o(i.Character_segmentation)
    DrawCircular_SymmetryPoint               0x08001471   Thumb Code   152  lcd_basic_application.o(i.DrawCircular_SymmetryPoint)
    DrawFont16                               0x08001509   Thumb Code   210  lcd_basic_application.o(i.DrawFont16)
    DrawFont24                               0x080015e5   Thumb Code   214  lcd_basic_application.o(i.DrawFont24)
    DrawFont32                               0x080016c5   Thumb Code   210  lcd_basic_application.o(i.DrawFont32)
    DrawHollowCircular                       0x080017a1   Thumb Code    70  lcd_basic_application.o(i.DrawHollowCircular)
    DrawHollowRectangle                      0x080017e7   Thumb Code    68  lcd_basic_application.o(i.DrawHollowRectangle)
    DrawLine                                 0x0800182b   Thumb Code   234  lcd_basic_application.o(i.DrawLine)
    DrawPoint                                0x08001915   Thumb Code    14  lcd_basic_application.o(i.DrawPoint)
    DrawSolidCircular                        0x08001929   Thumb Code    80  lcd_basic_application.o(i.DrawSolidCircular)
    DrawSolidRectangle                       0x08001979   Thumb Code    70  lcd_basic_application.o(i.DrawSolidRectangle)
    ESP8266_AT_Test                          0x080019c9   Thumb Code    56  esp8266.o(i.ESP8266_AT_Test)
    ESP8266_Cmd                              0x08001a0d   Thumb Code   236  esp8266.o(i.ESP8266_Cmd)
    ESP8266_Enable_MultipleId                0x08001b19   Thumb Code    38  esp8266.o(i.ESP8266_Enable_MultipleId)
    ESP8266_Init                             0x08001b55   Thumb Code    86  esp8266.o(i.ESP8266_Init)
    ESP8266_JoinAP                           0x08001bb1   Thumb Code    34  esp8266.o(i.ESP8266_JoinAP)
    ESP8266_Link_Server                      0x08001bed   Thumb Code    96  esp8266.o(i.ESP8266_Link_Server)
    ESP8266_Net_Mode_Choose                  0x08001c9d   Thumb Code    44  esp8266.o(i.ESP8266_Net_Mode_Choose)
    ESP8266_Rst                              0x08001cfd   Thumb Code    36  esp8266.o(i.ESP8266_Rst)
    ESP8266_UnvarnishSend                    0x08001de1   Thumb Code    40  esp8266.o(i.ESP8266_UnvarnishSend)
    EXTI15_10_IRQHandler                     0x08001e2d   Thumb Code    78  ov7725_exit.o(i.EXTI15_10_IRQHandler)
    EXTI9_5_IRQHandler                       0x08001e8d   Thumb Code    86  ov7725_entrance.o(i.EXTI9_5_IRQHandler)
    EXTI_ClearITPendingBit                   0x08001ef5   Thumb Code     6  stm32f10x_exti.o(i.EXTI_ClearITPendingBit)
    EXTI_GenerateSWInterrupt                 0x08001f01   Thumb Code    10  stm32f10x_exti.o(i.EXTI_GenerateSWInterrupt)
    EXTI_GetITStatus                         0x08001f11   Thumb Code    28  stm32f10x_exti.o(i.EXTI_GetITStatus)
    EXTI_Init                                0x08001f31   Thumb Code   108  stm32f10x_exti.o(i.EXTI_Init)
    Entrance_LP_communication                0x08001fa1   Thumb Code    82  license_plate_recognition.o(i.Entrance_LP_communication)
    Exit_LP_communication                    0x08002061   Thumb Code   214  license_plate_recognition.o(i.Exit_LP_communication)
    FSMC_NORSRAMCmd                          0x08002175   Thumb Code    26  stm32f10x_fsmc.o(i.FSMC_NORSRAMCmd)
    FSMC_NORSRAMInit                         0x08002195   Thumb Code   200  stm32f10x_fsmc.o(i.FSMC_NORSRAMInit)
    GENERAL_TIM_Init                         0x0800225d   Thumb Code    42  pwm.o(i.GENERAL_TIM_Init)
    GPIO_EXTILineConfig                      0x08002311   Thumb Code    34  stm32f10x_gpio.o(i.GPIO_EXTILineConfig)
    GPIO_Init                                0x08002339   Thumb Code   156  stm32f10x_gpio.o(i.GPIO_Init)
    GPIO_ReadInputDataBit                    0x080023d5   Thumb Code    14  stm32f10x_gpio.o(i.GPIO_ReadInputDataBit)
    GPIO_ResetBits                           0x080023e3   Thumb Code     4  stm32f10x_gpio.o(i.GPIO_ResetBits)
    GPIO_SetBits                             0x080023e7   Thumb Code     4  stm32f10x_gpio.o(i.GPIO_SetBits)
    IWDG_Config                              0x080023eb   Thumb Code    38  iwdg.o(i.IWDG_Config)
    IWDG_Enable                              0x08002411   Thumb Code    10  stm32f10x_iwdg.o(i.IWDG_Enable)
    IWDG_Feed                                0x08002421   Thumb Code     4  iwdg.o(i.IWDG_Feed)
    IWDG_ReloadCounter                       0x08002425   Thumb Code    10  stm32f10x_iwdg.o(i.IWDG_ReloadCounter)
    IWDG_SetPrescaler                        0x08002435   Thumb Code     6  stm32f10x_iwdg.o(i.IWDG_SetPrescaler)
    IWDG_SetReload                           0x08002441   Thumb Code     6  stm32f10x_iwdg.o(i.IWDG_SetReload)
    IWDG_WriteAccessCmd                      0x0800244d   Thumb Code     6  stm32f10x_iwdg.o(i.IWDG_WriteAccessCmd)
    Infrared_Init                            0x0800247d   Thumb Code    54  infrared_barrier.o(i.Infrared_Init)
    Interface_init                           0x080024c1   Thumb Code   236  lcd_interface_design.o(i.Interface_init)
    LCD_Clear                                0x080026d5   Thumb Code    60  lcd.o(i.LCD_Clear)
    LCD_GPIOInit                             0x08002719   Thumb Code   240  lcd.o(i.LCD_GPIOInit)
    LCD_Init                                 0x0800281d   Thumb Code    56  lcd.o(i.LCD_Init)
    LCD_RESET                                0x08002861   Thumb Code    26  lcd.o(i.LCD_RESET)
    LCD_SetCursor                            0x08002881   Thumb Code    12  lcd.o(i.LCD_SetCursor)
    LCD_SetParam                             0x0800288d   Thumb Code    38  lcd.o(i.LCD_SetParam)
    LCD_SetWindows                           0x080028b9   Thumb Code    18  lcd.o(i.LCD_SetWindows)
    LCD_WR_DATA                              0x080028d5   Thumb Code     6  lcd.o(i.LCD_WR_DATA)
    LCD_WriteRAM_Prepare                     0x080028e1   Thumb Code    10  lcd.o(i.LCD_WriteRAM_Prepare)
    LCD_WriteReg                             0x080028f5   Thumb Code    10  lcd.o(i.LCD_WriteReg)
    LP_display                               0x08002905   Thumb Code   120  lcd_interface_design.o(i.LP_display)
    NVIC_Init                                0x0800298d   Thumb Code    94  misc.o(i.NVIC_Init)
    NVIC_PriorityGroupConfig                 0x080029f1   Thumb Code    10  misc.o(i.NVIC_PriorityGroupConfig)
    Number_recognition_LP                    0x08002a05   Thumb Code   172  license_plate_recognition.o(i.Number_recognition_LP)
    OV7725_SCCB_GPIO_Config                  0x08002b69   Thumb Code    64  ov7725sccb_entrance.o(i.OV7725_SCCB_GPIO_Config)
    OV7725_SCCB_ReadByte                     0x08002bad   Thumb Code   246  ov7725sccb_entrance.o(i.OV7725_SCCB_ReadByte)
    OV7725_SCCB_WriteByte                    0x08002ded   Thumb Code    62  ov7725sccb_entrance.o(i.OV7725_SCCB_WriteByte)
    OV7725_entr_Brightness                   0x08002eb1   Thumb Code    78  ov7725_entrance.o(i.OV7725_entr_Brightness)
    OV7725_entr_Color_Saturation             0x08002eff   Thumb Code    34  ov7725_entrance.o(i.OV7725_entr_Color_Saturation)
    OV7725_entr_Contrast                     0x08002f21   Thumb Code    22  ov7725_entrance.o(i.OV7725_entr_Contrast)
    OV7725_entr_GPIO_Config                  0x08002f37   Thumb Code    18  ov7725_entrance.o(i.OV7725_entr_GPIO_Config)
    OV7725_entr_Init                         0x08002f49   Thumb Code    84  ov7725_entrance.o(i.OV7725_entr_Init)
    OV7725_entr_Light_Mode                   0x08002fa1   Thumb Code   152  ov7725_entrance.o(i.OV7725_entr_Light_Mode)
    OV7725_entr_Special_Effect               0x08003039   Thumb Code   138  ov7725_entrance.o(i.OV7725_entr_Special_Effect)
    OV7725_entr_Window_Set                   0x080030c3   Thumb Code   202  ov7725_entrance.o(i.OV7725_entr_Window_Set)
    OV7725_exit_Brightness                   0x0800318d   Thumb Code    78  ov7725_exit.o(i.OV7725_exit_Brightness)
    OV7725_exit_Color_Saturation             0x080031db   Thumb Code    34  ov7725_exit.o(i.OV7725_exit_Color_Saturation)
    OV7725_exit_Contrast                     0x080031fd   Thumb Code    22  ov7725_exit.o(i.OV7725_exit_Contrast)
    OV7725_exit_GPIO_Config                  0x080032a9   Thumb Code    18  ov7725_exit.o(i.OV7725_exit_GPIO_Config)
    OV7725_exit_Init                         0x080032bd   Thumb Code    84  ov7725_exit.o(i.OV7725_exit_Init)
    OV7725_exit_Light_Mode                   0x08003315   Thumb Code   152  ov7725_exit.o(i.OV7725_exit_Light_Mode)
    OV7725_exit_SCCB_GPIO_Config             0x080033ad   Thumb Code    66  ov7725sccb_exit.o(i.OV7725_exit_SCCB_GPIO_Config)
    OV7725_exit_SCCB_ReadByte                0x080033f5   Thumb Code   246  ov7725sccb_exit.o(i.OV7725_exit_SCCB_ReadByte)
    OV7725_exit_SCCB_WriteByte               0x08003635   Thumb Code    62  ov7725sccb_exit.o(i.OV7725_exit_SCCB_WriteByte)
    OV7725_exit_Special_Effect               0x08003681   Thumb Code   138  ov7725_exit.o(i.OV7725_exit_Special_Effect)
    OV7725_exit_Window_Set                   0x08003785   Thumb Code   202  ov7725_exit.o(i.OV7725_exit_Window_Set)
    Parking_information                      0x0800388d   Thumb Code   532  lcd_interface_design.o(i.Parking_information)
    Parking_management                       0x08003ac5   Thumb Code   678  parking_detection_processing.o(i.Parking_management)
    Parking_recommendation                   0x08003d91   Thumb Code   142  parking_detection_processing.o(i.Parking_recommendation)
    RCC_AHBPeriphClockCmd                    0x08003e35   Thumb Code    18  stm32f10x_rcc.o(i.RCC_AHBPeriphClockCmd)
    RCC_APB1PeriphClockCmd                   0x08003e4d   Thumb Code    18  stm32f10x_rcc.o(i.RCC_APB1PeriphClockCmd)
    RCC_APB2PeriphClockCmd                   0x08003e65   Thumb Code    18  stm32f10x_rcc.o(i.RCC_APB2PeriphClockCmd)
    RCC_GetClocksFreq                        0x08003e7d   Thumb Code   132  stm32f10x_rcc.o(i.RCC_GetClocksFreq)
    Scaling_Normalization                    0x08003f11   Thumb Code   196  license_plate_recognition.o(i.Scaling_Normalization)
    ShowCP                                   0x08004089   Thumb Code   296  lcd_basic_application.o(i.ShowCP)
    ShowChar                                 0x080041c1   Thumb Code   386  lcd_basic_application.o(i.ShowChar)
    ShowString                               0x08004359   Thumb Code    82  lcd_basic_application.o(i.ShowString)
    ShowYW24                                 0x080043b1   Thumb Code   168  lcd_basic_application.o(i.ShowYW24)
    Show_Str                                 0x08004465   Thumb Code   238  lcd_basic_application.o(i.Show_Str)
    Smoke_Init                               0x0800455d   Thumb Code    32  smoke_sensor.o(i.Smoke_Init)
    SysInit                                  0x08004581   Thumb Code    52  system.o(i.SysInit)
    SysTickInit                              0x080045b5   Thumb Code    48  systick.o(i.SysTickInit)
    SysTick_Handler                          0x080045ed   Thumb Code    18  board.o(i.SysTick_Handler)
    SystemInit                               0x08004601   Thumb Code    64  system_stm32f10x.o(i.SystemInit)
    TIM_Cmd                                  0x08004651   Thumb Code    20  stm32f10x_tim.o(i.TIM_Cmd)
    TIM_OC3Init                              0x08004665   Thumb Code   116  stm32f10x_tim.o(i.TIM_OC3Init)
    TIM_OC3PreloadConfig                     0x080046e1   Thumb Code    12  stm32f10x_tim.o(i.TIM_OC3PreloadConfig)
    TIM_OC4Init                              0x080046ed   Thumb Code    90  stm32f10x_tim.o(i.TIM_OC4Init)
    TIM_OC4PreloadConfig                     0x08004751   Thumb Code    20  stm32f10x_tim.o(i.TIM_OC4PreloadConfig)
    TIM_SetCompare3                          0x08004765   Thumb Code     4  stm32f10x_tim.o(i.TIM_SetCompare3)
    TIM_SetCompare4                          0x08004769   Thumb Code     6  stm32f10x_tim.o(i.TIM_SetCompare4)
    TIM_TimeBaseInit                         0x08004771   Thumb Code   114  stm32f10x_tim.o(i.TIM_TimeBaseInit)
    TaskInit                                 0x0800480d   Thumb Code   134  task.o(i.TaskInit)
    USART3_IRQHandler                        0x080048f9   Thumb Code   106  esp8266.o(i.USART3_IRQHandler)
    USART_ClearFlag                          0x0800496d   Thumb Code     6  stm32f10x_usart.o(i.USART_ClearFlag)
    USART_Cmd                                0x08004973   Thumb Code    20  stm32f10x_usart.o(i.USART_Cmd)
    USART_GetFlagStatus                      0x08004987   Thumb Code    14  stm32f10x_usart.o(i.USART_GetFlagStatus)
    USART_GetITStatus                        0x08004995   Thumb Code    62  stm32f10x_usart.o(i.USART_GetITStatus)
    USART_ITConfig                           0x080049d3   Thumb Code    48  stm32f10x_usart.o(i.USART_ITConfig)
    USART_Init                               0x08004a05   Thumb Code   166  stm32f10x_usart.o(i.USART_Init)
    USART_ReceiveData                        0x08004ab1   Thumb Code     8  stm32f10x_usart.o(i.USART_ReceiveData)
    USART_SendData                           0x08004ab9   Thumb Code     8  stm32f10x_usart.o(i.USART_SendData)
    USART_printf                             0x08004ac1   Thumb Code   252  usart.o(i.USART_printf)
    UsartInit                                0x08004c19   Thumb Code   130  usart.o(i.UsartInit)
    __rt_ffs                                 0x08004e5d   Thumb Code    62  kservice.o(i.__rt_ffs)
    alert                                    0x08005011   Thumb Code   250  lcd_interface_design.o(i.alert)
    button_process_init                      0x08005209   Thumb Code    54  parking_detection_processing.o(i.button_process_init)
    button_thread_entry                      0x08005271   Thumb Code   250  parking_detection_processing.o(i.button_thread_entry)
    cmd_free                                 0x080053f1   Thumb Code    10  msh.o(i.cmd_free)
    cmd_ps                                   0x080053fb   Thumb Code    10  msh.o(i.cmd_ps)
    finsh_get_prompt                         0x0800554d   Thumb Code    66  shell.o(i.finsh_get_prompt)
    finsh_set_prompt_mode                    0x080055ad   Thumb Code    16  shell.o(i.finsh_set_prompt_mode)
    finsh_system_function_init               0x080055c1   Thumb Code     8  shell.o(i.finsh_system_function_init)
    finsh_system_init                        0x080055cd   Thumb Code    90  shell.o(i.finsh_system_init)
    finsh_thread_entry                       0x08005661   Thumb Code   610  shell.o(i.finsh_thread_entry)
    hello                                    0x08005965   Thumb Code    12  cmd.o(i.hello)
    list                                     0x08005985   Thumb Code    48  cmd.o(i.list)
    list_event                               0x080059d9   Thumb Code   182  cmd.o(i.list_event)
    list_mailbox                             0x08005b99   Thumb Code   198  cmd.o(i.list_mailbox)
    list_mem                                 0x08005cd9   Thumb Code    32  mem.o(i.list_mem)
    list_msgqueue                            0x08005d45   Thumb Code   190  cmd.o(i.list_msgqueue)
    list_sem                                 0x08005e71   Thumb Code   190  cmd.o(i.list_sem)
    list_thread                              0x08005f91   Thumb Code   250  cmd.o(i.list_thread)
    list_timer                               0x08006149   Thumb Code   160  cmd.o(i.list_timer)
    $Super$$main                             0x08006289   Thumb Code    10  main.o(i.main)
    main_thread_entry                        0x08006293   Thumb Code    14  components.o(i.main_thread_entry)
    msh_auto_complete                        0x08006379   Thumb Code   152  msh.o(i.msh_auto_complete)
    msh_exec                                 0x08006425   Thumb Code    74  msh.o(i.msh_exec)
    msh_help                                 0x08006489   Thumb Code    56  msh.o(i.msh_help)
    msh_is_used                              0x080064f5   Thumb Code     4  msh.o(i.msh_is_used)
    rt_application_init                      0x08006761   Thumb Code    30  components.o(i.rt_application_init)
    rt_calloc                                0x0800678d   Thumb Code    26  mem.o(i.rt_calloc)
    rt_components_board_init                 0x080067a9   Thumb Code    20  components.o(i.rt_components_board_init)
    rt_components_init                       0x080067c5   Thumb Code    20  components.o(i.rt_components_init)
    rt_enter_critical                        0x080067e1   Thumb Code    22  scheduler.o(i.rt_enter_critical)
    rt_event_create                          0x080067fd   Thumb Code    32  ipc.o(i.rt_event_create)
    rt_event_recv                            0x0800681d   Thumb Code   190  ipc.o(i.rt_event_recv)
    rt_event_send                            0x080068db   Thumb Code   140  ipc.o(i.rt_event_send)
    rt_exit_critical                         0x08006969   Thumb Code    52  scheduler.o(i.rt_exit_critical)
    rt_free                                  0x080069a1   Thumb Code   112  mem.o(i.rt_free)
    rt_heap_begin_get                        0x08006a65   Thumb Code     4  board.o(i.rt_heap_begin_get)
    rt_heap_end_get                          0x08006a6d   Thumb Code     4  board.o(i.rt_heap_end_get)
    rt_hw_board_init                         0x08006a75   Thumb Code    30  board.o(i.rt_hw_board_init)
    rt_hw_console_getchar                    0x08006a95   Thumb Code    64  usart.o(i.rt_hw_console_getchar)
    rt_hw_console_output                     0x08006ad9   Thumb Code    72  usart.o(i.rt_hw_console_output)
    rt_hw_hard_fault_exception               0x08006b25   Thumb Code   186  cpuport.o(i.rt_hw_hard_fault_exception)
    rt_hw_stack_init                         0x08006d21   Thumb Code    54  cpuport.o(i.rt_hw_stack_init)
    rt_interrupt_enter                       0x08006d5d   Thumb Code    22  irq.o(i.rt_interrupt_enter)
    rt_interrupt_leave                       0x08006d79   Thumb Code    22  irq.o(i.rt_interrupt_leave)
    rt_kprintf                               0x08006e21   Thumb Code    28  kservice.o(i.rt_kprintf)
    rt_malloc                                0x08006ed9   Thumb Code   232  mem.o(i.rt_malloc)
    rt_memcpy                                0x08006fc9   Thumb Code    74  kservice.o(i.rt_memcpy)
    rt_memmove                               0x08007013   Thumb Code    46  kservice.o(i.rt_memmove)
    rt_memset                                0x08007041   Thumb Code    68  kservice.o(i.rt_memset)
    rt_mq_create                             0x08007085   Thumb Code   112  ipc.o(i.rt_mq_create)
    rt_mq_delete                             0x080070f5   Thumb Code    26  ipc.o(i.rt_mq_delete)
    rt_mq_recv                               0x0800710f   Thumb Code   228  ipc.o(i.rt_mq_recv)
    rt_mq_send                               0x080071f3   Thumb Code   132  ipc.o(i.rt_mq_send)
    rt_mq_urgent                             0x08007277   Thumb Code   126  ipc.o(i.rt_mq_urgent)
    rt_object_allocate                       0x080072f5   Thumb Code    76  object.o(i.rt_object_allocate)
    rt_object_delete                         0x08007341   Thumb Code    38  object.o(i.rt_object_delete)
    rt_object_detach                         0x08007367   Thumb Code    32  object.o(i.rt_object_detach)
    rt_object_get_information                0x08007389   Thumb Code    30  object.o(i.rt_object_get_information)
    rt_object_init                           0x080073ad   Thumb Code    80  object.o(i.rt_object_init)
    rt_object_is_systemobject                0x080073fd   Thumb Code    14  object.o(i.rt_object_is_systemobject)
    rt_schedule                              0x0800740d   Thumb Code    76  scheduler.o(i.rt_schedule)
    rt_schedule_insert_thread                0x08007465   Thumb Code    70  scheduler.o(i.rt_schedule_insert_thread)
    rt_schedule_remove_thread                0x080074b5   Thumb Code    66  scheduler.o(i.rt_schedule_remove_thread)
    rt_sem_create                            0x08007501   Thumb Code    32  ipc.o(i.rt_sem_create)
    rt_sem_init                              0x08007521   Thumb Code    36  ipc.o(i.rt_sem_init)
    rt_sem_release                           0x08007545   Thumb Code    60  ipc.o(i.rt_sem_release)
    rt_sem_take                              0x08007581   Thumb Code   110  ipc.o(i.rt_sem_take)
    rt_show_version                          0x080075f1   Thumb Code    40  kservice.o(i.rt_show_version)
    rt_strlen                                0x080076a1   Thumb Code    16  kservice.o(i.rt_strlen)
    rt_strncpy                               0x080076b1   Thumb Code    38  kservice.o(i.rt_strncpy)
    rt_system_heap_init                      0x080076d9   Thumb Code    98  mem.o(i.rt_system_heap_init)
    rt_system_scheduler_init                 0x08007789   Thumb Code    44  scheduler.o(i.rt_system_scheduler_init)
    rt_system_scheduler_start                0x080077bd   Thumb Code    32  scheduler.o(i.rt_system_scheduler_start)
    rt_system_timer_init                     0x080077e5   Thumb Code    18  timer.o(i.rt_system_timer_init)
    rt_system_timer_thread_init              0x080077fd   Thumb Code     2  timer.o(i.rt_system_timer_thread_init)
    rt_thread_create                         0x080077ff   Thumb Code    72  thread.o(i.rt_thread_create)
    rt_thread_exit                           0x08007849   Thumb Code    80  thread.o(i.rt_thread_exit)
    rt_thread_idle_excute                    0x080078bd   Thumb Code   116  idle.o(i.rt_thread_idle_excute)
    rt_thread_idle_init                      0x08007935   Thumb Code    40  idle.o(i.rt_thread_idle_init)
    rt_thread_init                           0x0800796d   Thumb Code    48  thread.o(i.rt_thread_init)
    rt_thread_mdelay                         0x0800799d   Thumb Code    14  thread.o(i.rt_thread_mdelay)
    rt_thread_resume                         0x080079ab   Thumb Code    60  thread.o(i.rt_thread_resume)
    rt_thread_self                           0x080079e9   Thumb Code     6  thread.o(i.rt_thread_self)
    rt_thread_sleep                          0x080079f5   Thumb Code    60  thread.o(i.rt_thread_sleep)
    rt_thread_startup                        0x08007a35   Thumb Code    40  thread.o(i.rt_thread_startup)
    rt_thread_suspend                        0x08007a61   Thumb Code    66  thread.o(i.rt_thread_suspend)
    rt_thread_timeout                        0x08007aa3   Thumb Code    32  thread.o(i.rt_thread_timeout)
    rt_thread_yield                          0x08007ac5   Thumb Code    86  thread.o(i.rt_thread_yield)
    rt_tick_from_millisecond                 0x08007b25   Thumb Code    50  clock.o(i.rt_tick_from_millisecond)
    rt_tick_get                              0x08007b59   Thumb Code     6  clock.o(i.rt_tick_get)
    rt_tick_increase                         0x08007b65   Thumb Code    38  clock.o(i.rt_tick_increase)
    rt_timer_check                           0x08007b91   Thumb Code   102  timer.o(i.rt_timer_check)
    rt_timer_control                         0x08007bfd   Thumb Code    48  timer.o(i.rt_timer_control)
    rt_timer_create                          0x08007c2d   Thumb Code    46  timer.o(i.rt_timer_create)
    rt_timer_detach                          0x08007c5b   Thumb Code    32  timer.o(i.rt_timer_detach)
    rt_timer_init                            0x08007c7b   Thumb Code    40  timer.o(i.rt_timer_init)
    rt_timer_start                           0x08007ca5   Thumb Code   154  timer.o(i.rt_timer_start)
    rt_timer_stop                            0x08007d45   Thumb Code    46  timer.o(i.rt_timer_stop)
    rt_vsnprintf                             0x08007d75   Thumb Code   604  kservice.o(i.rt_vsnprintf)
    rtthread_startup                         0x08007fe9   Thumb Code    42  components.o(i.rtthread_startup)
    version                                  0x0800813d   Thumb Code    10  cmd.o(i.version)
    __aeabi_dadd                             0x08008149   Thumb Code     0  daddsub_clz.o(x$fpl$dadd)
    _dadd                                    0x08008149   Thumb Code   332  daddsub_clz.o(x$fpl$dadd)
    __aeabi_d2uiz                            0x08008299   Thumb Code     0  dfixu.o(x$fpl$dfixu)
    _dfixu                                   0x08008299   Thumb Code    90  dfixu.o(x$fpl$dfixu)
    __aeabi_ui2d                             0x080082f3   Thumb Code     0  dflt_clz.o(x$fpl$dfltu)
    _dfltu                                   0x080082f3   Thumb Code    38  dflt_clz.o(x$fpl$dfltu)
    __aeabi_dmul                             0x08008319   Thumb Code     0  dmul.o(x$fpl$dmul)
    _dmul                                    0x08008319   Thumb Code   332  dmul.o(x$fpl$dmul)
    __fpl_dnaninf                            0x0800846d   Thumb Code   156  dnaninf.o(x$fpl$dnaninf)
    __fpl_dretinf                            0x08008509   Thumb Code    12  dretinf.o(x$fpl$dretinf)
    __aeabi_dsub                             0x08008515   Thumb Code     0  daddsub_clz.o(x$fpl$dsub)
    _dsub                                    0x08008515   Thumb Code   464  daddsub_clz.o(x$fpl$dsub)
    __I$use$fp                               0x080086e8   Number         0  usenofp.o(x$fpl$usenofp)
    __lowest_bit_bitmap                      0x080086e8   Data         256  kservice.o(.constdata)
    __fsym_list_mem_name                     0x0800880a   Data           9  mem.o(.constdata)
    __fsym_hello_name                        0x08008813   Data           6  cmd.o(.constdata)
    __fsym_version_name                      0x08008819   Data           8  cmd.o(.constdata)
    __fsym___cmd_version_name                0x08008821   Data          14  cmd.o(.constdata)
    __fsym_list_thread_name                  0x0800882f   Data          12  cmd.o(.constdata)
    __fsym___cmd_list_thread_name            0x0800883b   Data          18  cmd.o(.constdata)
    __fsym_list_sem_name                     0x0800884d   Data           9  cmd.o(.constdata)
    __fsym___cmd_list_sem_name               0x08008856   Data          15  cmd.o(.constdata)
    __fsym_list_event_name                   0x08008865   Data          11  cmd.o(.constdata)
    __fsym___cmd_list_event_name             0x08008870   Data          17  cmd.o(.constdata)
    __fsym_list_mailbox_name                 0x08008881   Data          13  cmd.o(.constdata)
    __fsym___cmd_list_mailbox_name           0x0800888e   Data          19  cmd.o(.constdata)
    __fsym_list_msgqueue_name                0x080088a1   Data          14  cmd.o(.constdata)
    __fsym___cmd_list_msgqueue_name          0x080088af   Data          20  cmd.o(.constdata)
    __fsym_list_timer_name                   0x080088c3   Data          11  cmd.o(.constdata)
    __fsym___cmd_list_timer_name             0x080088ce   Data          17  cmd.o(.constdata)
    __fsym_list_name                         0x080088df   Data           5  cmd.o(.constdata)
    __fsym___cmd_help_name                   0x080088e4   Data          11  msh.o(.constdata)
    __fsym___cmd_ps_name                     0x080088ef   Data           9  msh.o(.constdata)
    __fsym___cmd_free_name                   0x080088f8   Data          11  msh.o(.constdata)
    number24                                 0x08008903   Data         672  lcd_basic_application.o(.constdata)
    asc2_1608                                0x08008ba3   Data        1520  lcd_basic_application.o(.constdata)
    tfont16                                  0x08009193   Data         340  lcd_basic_application.o(.constdata)
    tfont24                                  0x080092e7   Data        2146  lcd_basic_application.o(.constdata)
    tfont32                                  0x08009b49   Data        1040  lcd_basic_application.o(.constdata)
    YW                                       0x08009f59   Data         600  lcd_basic_application.o(.constdata)
    ZF                                       0x0800a1b1   Data         450  license_plate_recognition.o(.constdata)
    ZM                                       0x0800a373   Data        3150  license_plate_recognition.o(.constdata)
    CPZM                                     0x0800afc1   Data          21  license_plate_recognition.o(.constdata)
    CPHZ                                     0x0800afd6   Data           9  license_plate_recognition.o(.constdata)
    __rt_init_rti_start                      0x0800b064   Data           4  components.o(.rti_fn.0)
    __rt_init_rti_board_start                0x0800b068   Data           4  components.o(.rti_fn.0.end)
    __rt_init_rti_board_end                  0x0800b06c   Data           4  components.o(.rti_fn.1.end)
    __rt_init_LCD_Init                       0x0800b070   Data           4  lcd.o(.rti_fn.6)
    __rt_init_finsh_system_init              0x0800b074   Data           4  shell.o(.rti_fn.6)
    __rt_init_button_process_init            0x0800b078   Data           4  parking_detection_processing.o(.rti_fn.6)
    __rt_init_rti_end                        0x0800b07c   Data           4  components.o(.rti_fn.6.end)
    FSymTab$$Base                            0x0800b080   Number         0  mem.o(FSymTab)
    __fsym_list_mem                          0x0800b080   Data           8  mem.o(FSymTab)
    __fsym_hello                             0x0800b088   Data           8  cmd.o(FSymTab)
    __fsym_version                           0x0800b090   Data           8  cmd.o(FSymTab)
    __fsym___cmd_version                     0x0800b098   Data           8  cmd.o(FSymTab)
    __fsym_list_thread                       0x0800b0a0   Data           8  cmd.o(FSymTab)
    __fsym___cmd_list_thread                 0x0800b0a8   Data           8  cmd.o(FSymTab)
    __fsym_list_sem                          0x0800b0b0   Data           8  cmd.o(FSymTab)
    __fsym___cmd_list_sem                    0x0800b0b8   Data           8  cmd.o(FSymTab)
    __fsym_list_event                        0x0800b0c0   Data           8  cmd.o(FSymTab)
    __fsym___cmd_list_event                  0x0800b0c8   Data           8  cmd.o(FSymTab)
    __fsym_list_mailbox                      0x0800b0d0   Data           8  cmd.o(FSymTab)
    __fsym___cmd_list_mailbox                0x0800b0d8   Data           8  cmd.o(FSymTab)
    __fsym_list_msgqueue                     0x0800b0e0   Data           8  cmd.o(FSymTab)
    __fsym___cmd_list_msgqueue               0x0800b0e8   Data           8  cmd.o(FSymTab)
    __fsym_list_timer                        0x0800b0f0   Data           8  cmd.o(FSymTab)
    __fsym___cmd_list_timer                  0x0800b0f8   Data           8  cmd.o(FSymTab)
    __fsym_list                              0x0800b100   Data           8  cmd.o(FSymTab)
    __fsym___cmd_help                        0x0800b108   Data           8  msh.o(FSymTab)
    __fsym___cmd_ps                          0x0800b110   Data           8  msh.o(FSymTab)
    __fsym___cmd_free                        0x0800b118   Data           8  msh.o(FSymTab)
    FSymTab$$Limit                           0x0800b120   Number         0  msh.o(FSymTab)
    Region$$Table$$Base                      0x0800b120   Number         0  anon$$obj.o(Region$$Table)
    Region$$Table$$Limit                     0x0800b140   Number         0  anon$$obj.o(Region$$Table)
    SystemCoreClock                          0x20000000   Data           4  system_stm32f10x.o(.data)
    AHBPrescTable                            0x20000004   Data          16  system_stm32f10x.o(.data)
    POINT_COLOR                              0x2000002a   Data           2  lcd.o(.data)
    BACK_COLOR                               0x2000002c   Data           2  lcd.o(.data)
    OV7725_REG_NUM                           0x2000002e   Data           1  ov7725_entrance.o(.data)
    OV7725_entr_vsync                        0x2000002f   Data           1  ov7725_entrance.o(.data)
    OV7725_Sensor_Config                     0x20000030   Data         154  ov7725_entrance.o(.data)
    OV7725_exit_REG_NUM                      0x200000ca   Data           1  ov7725_exit.o(.data)
    OV7725_exit_vsync                        0x200000cb   Data           1  ov7725_exit.o(.data)
    OV7725_exit_Sensor_Config                0x200000cc   Data         154  ov7725_exit.o(.data)
    rt_interrupt_nest                        0x2000016c   Data           1  irq.o(.data)
    rt_current_priority                      0x200001e8   Data           1  scheduler.o(.data)
    rt_current_thread                        0x200001ec   Data           4  scheduler.o(.data)
    rt_thread_ready_priority_group           0x200001f0   Data           4  scheduler.o(.data)
    rt_thread_defunct                        0x200001f4   Data           8  scheduler.o(.data)
    rt_interrupt_from_thread                 0x2000020c   Data           4  cpuport.o(.data)
    rt_interrupt_to_thread                   0x20000210   Data           4  cpuport.o(.data)
    rt_thread_switch_interrupt_flag          0x20000214   Data           4  cpuport.o(.data)
    _syscall_table_begin                     0x20000218   Data           4  shell.o(.data)
    _syscall_table_end                       0x2000021c   Data           4  shell.o(.data)
    _sysvar_table_begin                      0x20000220   Data           4  shell.o(.data)
    _sysvar_table_end                        0x20000224   Data           4  shell.o(.data)
    shell                                    0x2000022c   Data           4  shell.o(.data)
    number_LP                                0x20000230   Data           7  license_plate_recognition.o(.data)
    Update_P                                 0x20000246   Data           1  parking_detection_processing.o(.data)
    sign_ps                                  0x20000247   Data           1  parking_detection_processing.o(.data)
    Detained_vehicle                         0x20000258   Data           2  task.o(.data)
    TaskThread                               0x20000264   Data         144  task.o(.data)
    exit_recv_sem                            0x200002f4   Data           4  main.o(.data)
    entr_recv_sem                            0x200002f8   Data           4  main.o(.data)
    Inspection_event                         0x200002fc   Data           4  main.o(.data)
    In_ProcessSoftTimer                      0x20000300   Data           4  main.o(.data)
    strEsp8266_Fram_Record                   0x20000304   Data        1026  esp8266.o(.bss)
    lcddev                                   0x20000706   Data          14  lcd.o(.bss)
    rt_thread_priority_table                 0x2000095c   Data          64  scheduler.o(.bss)
    __libspace_start                         0x2000c5bc   Data          96  libspace.o(.bss)
    __temporary_stack_top$libspace           0x2000c61c   Data           0  libspace.o(.bss)



==============================================================================

Memory Map of the image

  Image Entry point : 0x08000131

  Load Region LR_IROM1 (Base: 0x08000000, Size: 0x0000b444, Max: 0x00080000, ABSOLUTE, COMPRESSED[0x0000b284])

    Execution Region ER_IROM1 (Exec base: 0x08000000, Load base: 0x08000000, Size: 0x0000b140, Max: 0x00080000, ABSOLUTE)

    Exec Addr    Load Addr    Size         Type   Attr      Idx    E Section Name        Object

    0x08000000   0x08000000   0x00000130   Data   RO          127    RESET               startup_stm32f10x_hd.o
    0x08000130   0x08000130   0x00000008   Code   RO         5619  * !!!main             c_w.l(__main.o)
    0x08000138   0x08000138   0x00000034   Code   RO         5814    !!!scatter          c_w.l(__scatter.o)
    0x0800016c   0x0800016c   0x0000005a   Code   RO         5812    !!dczerorl2         c_w.l(__dczerorl2.o)
    0x080001c6   0x080001c6   0x00000002   PAD
    0x080001c8   0x080001c8   0x0000001c   Code   RO         5816    !!handler_zi        c_w.l(__scatter_zi.o)
    0x080001e4   0x080001e4   0x00000000   Code   RO         5596    .ARM.Collect$$_printf_percent$$00000000  c_w.l(_printf_percent.o)
    0x080001e4   0x080001e4   0x00000006   Code   RO         5595    .ARM.Collect$$_printf_percent$$00000009  c_w.l(_printf_d.o)
    0x080001ea   0x080001ea   0x00000006   Code   RO         5593    .ARM.Collect$$_printf_percent$$00000013  c_w.l(_printf_c.o)
    0x080001f0   0x080001f0   0x00000006   Code   RO         5594    .ARM.Collect$$_printf_percent$$00000014  c_w.l(_printf_s.o)
    0x080001f6   0x080001f6   0x00000004   Code   RO         5648    .ARM.Collect$$_printf_percent$$00000017  c_w.l(_printf_percent_end.o)
    0x080001fa   0x080001fa   0x00000002   Code   RO         5680    .ARM.Collect$$libinit$$00000000  c_w.l(libinit.o)
    0x080001fc   0x080001fc   0x00000000   Code   RO         5687    .ARM.Collect$$libinit$$00000002  c_w.l(libinit2.o)
    0x080001fc   0x080001fc   0x00000000   Code   RO         5689    .ARM.Collect$$libinit$$00000004  c_w.l(libinit2.o)
    0x080001fc   0x080001fc   0x00000000   Code   RO         5692    .ARM.Collect$$libinit$$0000000A  c_w.l(libinit2.o)
    0x080001fc   0x080001fc   0x00000000   Code   RO         5694    .ARM.Collect$$libinit$$0000000C  c_w.l(libinit2.o)
    0x080001fc   0x080001fc   0x00000000   Code   RO         5696    .ARM.Collect$$libinit$$0000000E  c_w.l(libinit2.o)
    0x080001fc   0x080001fc   0x00000000   Code   RO         5699    .ARM.Collect$$libinit$$00000011  c_w.l(libinit2.o)
    0x080001fc   0x080001fc   0x00000000   Code   RO         5701    .ARM.Collect$$libinit$$00000013  c_w.l(libinit2.o)
    0x080001fc   0x080001fc   0x00000000   Code   RO         5703    .ARM.Collect$$libinit$$00000015  c_w.l(libinit2.o)
    0x080001fc   0x080001fc   0x00000000   Code   RO         5705    .ARM.Collect$$libinit$$00000017  c_w.l(libinit2.o)
    0x080001fc   0x080001fc   0x00000000   Code   RO         5707    .ARM.Collect$$libinit$$00000019  c_w.l(libinit2.o)
    0x080001fc   0x080001fc   0x00000000   Code   RO         5709    .ARM.Collect$$libinit$$0000001B  c_w.l(libinit2.o)
    0x080001fc   0x080001fc   0x00000000   Code   RO         5711    .ARM.Collect$$libinit$$0000001D  c_w.l(libinit2.o)
    0x080001fc   0x080001fc   0x00000000   Code   RO         5713    .ARM.Collect$$libinit$$0000001F  c_w.l(libinit2.o)
    0x080001fc   0x080001fc   0x00000000   Code   RO         5715    .ARM.Collect$$libinit$$00000021  c_w.l(libinit2.o)
    0x080001fc   0x080001fc   0x00000000   Code   RO         5717    .ARM.Collect$$libinit$$00000023  c_w.l(libinit2.o)
    0x080001fc   0x080001fc   0x00000000   Code   RO         5719    .ARM.Collect$$libinit$$00000025  c_w.l(libinit2.o)
    0x080001fc   0x080001fc   0x00000000   Code   RO         5723    .ARM.Collect$$libinit$$0000002C  c_w.l(libinit2.o)
    0x080001fc   0x080001fc   0x00000000   Code   RO         5725    .ARM.Collect$$libinit$$0000002E  c_w.l(libinit2.o)
    0x080001fc   0x080001fc   0x00000000   Code   RO         5727    .ARM.Collect$$libinit$$00000030  c_w.l(libinit2.o)
    0x080001fc   0x080001fc   0x00000000   Code   RO         5729    .ARM.Collect$$libinit$$00000032  c_w.l(libinit2.o)
    0x080001fc   0x080001fc   0x00000002   Code   RO         5730    .ARM.Collect$$libinit$$00000033  c_w.l(libinit2.o)
    0x080001fe   0x080001fe   0x00000002   Code   RO         5750    .ARM.Collect$$libshutdown$$00000000  c_w.l(libshutdown.o)
    0x08000200   0x08000200   0x00000000   Code   RO         5763    .ARM.Collect$$libshutdown$$00000002  c_w.l(libshutdown2.o)
    0x08000200   0x08000200   0x00000000   Code   RO         5765    .ARM.Collect$$libshutdown$$00000004  c_w.l(libshutdown2.o)
    0x08000200   0x08000200   0x00000000   Code   RO         5767    .ARM.Collect$$libshutdown$$00000006  c_w.l(libshutdown2.o)
    0x08000200   0x08000200   0x00000000   Code   RO         5770    .ARM.Collect$$libshutdown$$00000009  c_w.l(libshutdown2.o)
    0x08000200   0x08000200   0x00000000   Code   RO         5773    .ARM.Collect$$libshutdown$$0000000C  c_w.l(libshutdown2.o)
    0x08000200   0x08000200   0x00000000   Code   RO         5775    .ARM.Collect$$libshutdown$$0000000E  c_w.l(libshutdown2.o)
    0x08000200   0x08000200   0x00000000   Code   RO         5778    .ARM.Collect$$libshutdown$$00000011  c_w.l(libshutdown2.o)
    0x08000200   0x08000200   0x00000002   Code   RO         5779    .ARM.Collect$$libshutdown$$00000012  c_w.l(libshutdown2.o)
    0x08000202   0x08000202   0x00000000   Code   RO         5639    .ARM.Collect$$rtentry$$00000000  c_w.l(__rtentry.o)
    0x08000202   0x08000202   0x00000000   Code   RO         5655    .ARM.Collect$$rtentry$$00000002  c_w.l(__rtentry2.o)
    0x08000202   0x08000202   0x00000006   Code   RO         5667    .ARM.Collect$$rtentry$$00000004  c_w.l(__rtentry4.o)
    0x08000208   0x08000208   0x00000000   Code   RO         5657    .ARM.Collect$$rtentry$$00000009  c_w.l(__rtentry2.o)
    0x08000208   0x08000208   0x00000004   Code   RO         5658    .ARM.Collect$$rtentry$$0000000A  c_w.l(__rtentry2.o)
    0x0800020c   0x0800020c   0x00000000   Code   RO         5660    .ARM.Collect$$rtentry$$0000000C  c_w.l(__rtentry2.o)
    0x0800020c   0x0800020c   0x00000008   Code   RO         5661    .ARM.Collect$$rtentry$$0000000D  c_w.l(__rtentry2.o)
    0x08000214   0x08000214   0x00000002   Code   RO         5684    .ARM.Collect$$rtexit$$00000000  c_w.l(rtexit.o)
    0x08000216   0x08000216   0x00000000   Code   RO         5732    .ARM.Collect$$rtexit$$00000002  c_w.l(rtexit2.o)
    0x08000216   0x08000216   0x00000004   Code   RO         5733    .ARM.Collect$$rtexit$$00000003  c_w.l(rtexit2.o)
    0x0800021a   0x0800021a   0x00000006   Code   RO         5734    .ARM.Collect$$rtexit$$00000004  c_w.l(rtexit2.o)
    0x08000220   0x08000220   0x00000040   Code   RO          128    .text               startup_stm32f10x_hd.o
    0x08000260   0x08000260   0x000000f4   Code   RO         4870    .text               context_rvds.o
    0x08000354   0x08000354   0x00000028   Code   RO         5565    .text               c_w.l(noretval__2sprintf.o)
    0x0800037c   0x0800037c   0x00000068   Code   RO         5567    .text               c_w.l(__printf.o)
    0x080003e4   0x080003e4   0x00000052   Code   RO         5569    .text               c_w.l(_printf_str.o)
    0x08000436   0x08000436   0x00000002   PAD
    0x08000438   0x08000438   0x00000078   Code   RO         5571    .text               c_w.l(_printf_dec.o)
    0x080004b0   0x080004b0   0x00000024   Code   RO         5597    .text               c_w.l(strstr.o)
    0x080004d4   0x080004d4   0x00000048   Code   RO         5599    .text               c_w.l(strcpy.o)
    0x0800051c   0x0800051c   0x0000003e   Code   RO         5601    .text               c_w.l(strlen.o)
    0x0800055a   0x0800055a   0x00000096   Code   RO         5603    .text               c_w.l(strncmp.o)
    0x080005f0   0x080005f0   0x00000018   Code   RO         5605    .text               c_w.l(strcat.o)
    0x08000608   0x08000608   0x00000064   Code   RO         5607    .text               c_w.l(rt_memcpy_w.o)
    0x0800066c   0x0800066c   0x00000044   Code   RO         5609    .text               c_w.l(rt_memclr.o)
    0x080006b0   0x080006b0   0x0000004e   Code   RO         5611    .text               c_w.l(rt_memclr_w.o)
    0x080006fe   0x080006fe   0x00000056   Code   RO         5613    .text               c_w.l(strncpy.o)
    0x08000754   0x08000754   0x00000080   Code   RO         5615    .text               c_w.l(strcmpv7m.o)
    0x080007d4   0x080007d4   0x00000006   Code   RO         5617    .text               c_w.l(heapauxi.o)
    0x080007da   0x080007da   0x000000b2   Code   RO         5640    .text               c_w.l(_printf_intcommon.o)
    0x0800088c   0x0800088c   0x00000030   Code   RO         5642    .text               c_w.l(_printf_char_common.o)
    0x080008bc   0x080008bc   0x0000000a   Code   RO         5644    .text               c_w.l(_sputc.o)
    0x080008c6   0x080008c6   0x0000002c   Code   RO         5646    .text               c_w.l(_printf_char.o)
    0x080008f2   0x080008f2   0x0000004a   Code   RO         5671    .text               c_w.l(sys_stackheap_outer.o)
    0x0800093c   0x0800093c   0x00000012   Code   RO         5673    .text               c_w.l(exit.o)
    0x0800094e   0x0800094e   0x00000002   PAD
    0x08000950   0x08000950   0x00000008   Code   RO         5681    .text               c_w.l(libspace.o)
    0x08000958   0x08000958   0x0000000c   Code   RO         5742    .text               c_w.l(sys_exit.o)
    0x08000964   0x08000964   0x00000002   Code   RO         5753    .text               c_w.l(use_no_semi.o)
    0x08000966   0x08000966   0x00000000   Code   RO         5755    .text               c_w.l(indicate_semi.o)
    0x08000966   0x08000966   0x0000000a   Code   RO         3819    i.$Sub$$main        components.o
    0x08000970   0x08000970   0x000001bc   Code   RO         5260    i.Area_bin          license_plate_recognition.o
    0x08000b2c   0x08000b2c   0x000002dc   Code   RO         5261    i.Areap_LP          license_plate_recognition.o
    0x08000e08   0x08000e08   0x0000005c   Code   RO         5323    i.ButtonDetect      parking_detection_processing.o
    0x08000e64   0x08000e64   0x00000012   Code   RO         5324    i.ButtonInit        parking_detection_processing.o
    0x08000e76   0x08000e76   0x00000002   PAD
    0x08000e78   0x08000e78   0x00000040   Code   RO         5325    i.ButtonProj        parking_detection_processing.o
    0x08000eb8   0x08000eb8   0x000000cc   Code   RO         5326    i.ButtonVarInit     parking_detection_processing.o
    0x08000f84   0x08000f84   0x00000072   Code   RO         5537    i.Camera_settings   system.o
    0x08000ff6   0x08000ff6   0x00000002   PAD
    0x08000ff8   0x08000ff8   0x00000130   Code   RO         5262    i.Character_matching  license_plate_recognition.o
    0x08001128   0x08001128   0x00000348   Code   RO         5263    i.Character_segmentation  license_plate_recognition.o
    0x08001470   0x08001470   0x00000098   Code   RO         5128    i.DrawCircular_SymmetryPoint  lcd_basic_application.o
    0x08001508   0x08001508   0x000000dc   Code   RO         5129    i.DrawFont16        lcd_basic_application.o
    0x080015e4   0x080015e4   0x000000e0   Code   RO         5130    i.DrawFont24        lcd_basic_application.o
    0x080016c4   0x080016c4   0x000000dc   Code   RO         5131    i.DrawFont32        lcd_basic_application.o
    0x080017a0   0x080017a0   0x00000046   Code   RO         5132    i.DrawHollowCircular  lcd_basic_application.o
    0x080017e6   0x080017e6   0x00000044   Code   RO         5133    i.DrawHollowRectangle  lcd_basic_application.o
    0x0800182a   0x0800182a   0x000000ea   Code   RO         5134    i.DrawLine          lcd_basic_application.o
    0x08001914   0x08001914   0x00000014   Code   RO         5135    i.DrawPoint         lcd_basic_application.o
    0x08001928   0x08001928   0x00000050   Code   RO         5136    i.DrawSolidCircular  lcd_basic_application.o
    0x08001978   0x08001978   0x00000050   Code   RO         5137    i.DrawSolidRectangle  lcd_basic_application.o
    0x080019c8   0x080019c8   0x00000044   Code   RO         3300    i.ESP8266_AT_Test   esp8266.o
    0x08001a0c   0x08001a0c   0x0000010c   Code   RO         3302    i.ESP8266_Cmd       esp8266.o
    0x08001b18   0x08001b18   0x0000003c   Code   RO         3303    i.ESP8266_Enable_MultipleId  esp8266.o
    0x08001b54   0x08001b54   0x0000005c   Code   RO         3307    i.ESP8266_Init      esp8266.o
    0x08001bb0   0x08001bb0   0x0000003c   Code   RO         3309    i.ESP8266_JoinAP    esp8266.o
    0x08001bec   0x08001bec   0x000000b0   Code   RO         3310    i.ESP8266_Link_Server  esp8266.o
    0x08001c9c   0x08001c9c   0x00000060   Code   RO         3311    i.ESP8266_Net_Mode_Choose  esp8266.o
    0x08001cfc   0x08001cfc   0x00000028   Code   RO         3313    i.ESP8266_Rst       esp8266.o
    0x08001d24   0x08001d24   0x000000bc   Code   RO         3316    i.ESP8266_USART_Config  esp8266.o
    0x08001de0   0x08001de0   0x0000004c   Code   RO         3317    i.ESP8266_UnvarnishSend  esp8266.o
    0x08001e2c   0x08001e2c   0x00000060   Code   RO         3577    i.EXTI15_10_IRQHandler  ov7725_exit.o
    0x08001e8c   0x08001e8c   0x00000068   Code   RO         3504    i.EXTI9_5_IRQHandler  ov7725_entrance.o
    0x08001ef4   0x08001ef4   0x0000000c   Code   RO          934    i.EXTI_ClearITPendingBit  stm32f10x_exti.o
    0x08001f00   0x08001f00   0x00000010   Code   RO          936    i.EXTI_GenerateSWInterrupt  stm32f10x_exti.o
    0x08001f10   0x08001f10   0x00000020   Code   RO          938    i.EXTI_GetITStatus  stm32f10x_exti.o
    0x08001f30   0x08001f30   0x00000070   Code   RO          939    i.EXTI_Init         stm32f10x_exti.o
    0x08001fa0   0x08001fa0   0x00000078   Code   RO         5264    i.Entrance_LP_communication  license_plate_recognition.o
    0x08002018   0x08002018   0x00000048   Code   RO         5430    i.Event_thread_entry  task.o
    0x08002060   0x08002060   0x00000114   Code   RO         5265    i.Exit_LP_communication  license_plate_recognition.o
    0x08002174   0x08002174   0x00000020   Code   RO         1170    i.FSMC_NORSRAMCmd   stm32f10x_fsmc.o
    0x08002194   0x08002194   0x000000c8   Code   RO         1172    i.FSMC_NORSRAMInit  stm32f10x_fsmc.o
    0x0800225c   0x0800225c   0x00000030   Code   RO         3206    i.GENERAL_TIM_Init  pwm.o
    0x0800228c   0x0800228c   0x00000084   Code   RO         3207    i.GENERAL_TIM_Mode_Config  pwm.o
    0x08002310   0x08002310   0x00000028   Code   RO         1282    i.GPIO_EXTILineConfig  stm32f10x_gpio.o
    0x08002338   0x08002338   0x0000009c   Code   RO         1285    i.GPIO_Init         stm32f10x_gpio.o
    0x080023d4   0x080023d4   0x0000000e   Code   RO         1289    i.GPIO_ReadInputDataBit  stm32f10x_gpio.o
    0x080023e2   0x080023e2   0x00000004   Code   RO         1292    i.GPIO_ResetBits    stm32f10x_gpio.o
    0x080023e6   0x080023e6   0x00000004   Code   RO         1293    i.GPIO_SetBits      stm32f10x_gpio.o
    0x080023ea   0x080023ea   0x00000026   Code   RO         3085    i.IWDG_Config       iwdg.o
    0x08002410   0x08002410   0x00000010   Code   RO         1597    i.IWDG_Enable       stm32f10x_iwdg.o
    0x08002420   0x08002420   0x00000004   Code   RO         3086    i.IWDG_Feed         iwdg.o
    0x08002424   0x08002424   0x00000010   Code   RO         1599    i.IWDG_ReloadCounter  stm32f10x_iwdg.o
    0x08002434   0x08002434   0x0000000c   Code   RO         1600    i.IWDG_SetPrescaler  stm32f10x_iwdg.o
    0x08002440   0x08002440   0x0000000c   Code   RO         1601    i.IWDG_SetReload    stm32f10x_iwdg.o
    0x0800244c   0x0800244c   0x0000000c   Code   RO         1602    i.IWDG_WriteAccessCmd  stm32f10x_iwdg.o
    0x08002458   0x08002458   0x00000020   Code   RO         5431    i.IWDG_thread_entry  task.o
    0x08002478   0x08002478   0x00000004   Code   RO         5327    i.In_ProcessSoftTimer_callback  parking_detection_processing.o
    0x0800247c   0x0800247c   0x00000040   Code   RO         3757    i.Infrared_Init     infrared_barrier.o
    0x080024bc   0x080024bc   0x00000004   Code   RO         5432    i.Inspection_ProcessSoftTimer_callback  task.o
    0x080024c0   0x080024c0   0x00000154   Code   RO         5230    i.Interface_init    lcd_interface_design.o
    0x08002614   0x08002614   0x0000001c   Code   RO         5328    i.IsKey1Down        parking_detection_processing.o
    0x08002630   0x08002630   0x0000001c   Code   RO         5329    i.IsKey2Down        parking_detection_processing.o
    0x0800264c   0x0800264c   0x0000001c   Code   RO         5330    i.IsKey3Down        parking_detection_processing.o
    0x08002668   0x08002668   0x0000001c   Code   RO         5331    i.IsKey4Down        parking_detection_processing.o
    0x08002684   0x08002684   0x0000001c   Code   RO         5332    i.IsKey5Down        parking_detection_processing.o
    0x080026a0   0x080026a0   0x0000001c   Code   RO         5333    i.IsKey6Down        parking_detection_processing.o
    0x080026bc   0x080026bc   0x00000018   Code   RO         5334    i.IsKey7Down        parking_detection_processing.o
    0x080026d4   0x080026d4   0x00000044   Code   RO         3426    i.LCD_Clear         lcd.o
    0x08002718   0x08002718   0x00000104   Code   RO         3427    i.LCD_GPIOInit      lcd.o
    0x0800281c   0x0800281c   0x00000044   Code   RO         3428    i.LCD_Init          lcd.o
    0x08002860   0x08002860   0x00000020   Code   RO         3429    i.LCD_RESET         lcd.o
    0x08002880   0x08002880   0x0000000c   Code   RO         3430    i.LCD_SetCursor     lcd.o
    0x0800288c   0x0800288c   0x0000002c   Code   RO         3431    i.LCD_SetParam      lcd.o
    0x080028b8   0x080028b8   0x0000001c   Code   RO         3432    i.LCD_SetWindows    lcd.o
    0x080028d4   0x080028d4   0x0000000c   Code   RO         3433    i.LCD_WR_DATA       lcd.o
    0x080028e0   0x080028e0   0x00000014   Code   RO         3435    i.LCD_WriteRAM_Prepare  lcd.o
    0x080028f4   0x080028f4   0x00000010   Code   RO         3436    i.LCD_WriteReg      lcd.o
    0x08002904   0x08002904   0x00000088   Code   RO         5231    i.LP_display        lcd_interface_design.o
    0x0800298c   0x0800298c   0x00000064   Code   RO          132    i.NVIC_Init         misc.o
    0x080029f0   0x080029f0   0x00000014   Code   RO          133    i.NVIC_PriorityGroupConfig  misc.o
    0x08002a04   0x08002a04   0x000000cc   Code   RO         5266    i.Number_recognition_LP  license_plate_recognition.o
    0x08002ad0   0x08002ad0   0x00000098   Code   RO         3505    i.OV7725_FIFO_GPIO_Config  ov7725_entrance.o
    0x08002b68   0x08002b68   0x00000044   Code   RO         3656    i.OV7725_SCCB_GPIO_Config  ov7725sccb_entrance.o
    0x08002bac   0x08002bac   0x000000fc   Code   RO         3657    i.OV7725_SCCB_ReadByte  ov7725sccb_entrance.o
    0x08002ca8   0x08002ca8   0x00000054   Code   RO         3658    i.OV7725_SCCB_SendByte  ov7725sccb_entrance.o
    0x08002cfc   0x08002cfc   0x00000064   Code   RO         3659    i.OV7725_SCCB_Start  ov7725sccb_entrance.o
    0x08002d60   0x08002d60   0x0000003c   Code   RO         3660    i.OV7725_SCCB_Stop  ov7725sccb_entrance.o
    0x08002d9c   0x08002d9c   0x00000050   Code   RO         3661    i.OV7725_SCCB_WaitAck  ov7725sccb_entrance.o
    0x08002dec   0x08002dec   0x0000003e   Code   RO         3662    i.OV7725_SCCB_WriteByte  ov7725sccb_entrance.o
    0x08002e2a   0x08002e2a   0x0000000e   Code   RO         3663    i.OV7725_SCCB_delay  ov7725sccb_entrance.o
    0x08002e38   0x08002e38   0x00000078   Code   RO         3506    i.OV7725_VSYNC_GPIO_Config  ov7725_entrance.o
    0x08002eb0   0x08002eb0   0x0000004e   Code   RO         3507    i.OV7725_entr_Brightness  ov7725_entrance.o
    0x08002efe   0x08002efe   0x00000022   Code   RO         3508    i.OV7725_entr_Color_Saturation  ov7725_entrance.o
    0x08002f20   0x08002f20   0x00000016   Code   RO         3509    i.OV7725_entr_Contrast  ov7725_entrance.o
    0x08002f36   0x08002f36   0x00000012   Code   RO         3510    i.OV7725_entr_GPIO_Config  ov7725_entrance.o
    0x08002f48   0x08002f48   0x00000058   Code   RO         3511    i.OV7725_entr_Init  ov7725_entrance.o
    0x08002fa0   0x08002fa0   0x00000098   Code   RO         3512    i.OV7725_entr_Light_Mode  ov7725_entrance.o
    0x08003038   0x08003038   0x0000008a   Code   RO         3513    i.OV7725_entr_Special_Effect  ov7725_entrance.o
    0x080030c2   0x080030c2   0x000000ca   Code   RO         3514    i.OV7725_entr_Window_Set  ov7725_entrance.o
    0x0800318c   0x0800318c   0x0000004e   Code   RO         3578    i.OV7725_exit_Brightness  ov7725_exit.o
    0x080031da   0x080031da   0x00000022   Code   RO         3579    i.OV7725_exit_Color_Saturation  ov7725_exit.o
    0x080031fc   0x080031fc   0x00000016   Code   RO         3580    i.OV7725_exit_Contrast  ov7725_exit.o
    0x08003212   0x08003212   0x00000002   PAD
    0x08003214   0x08003214   0x00000094   Code   RO         3581    i.OV7725_exit_FIFO_GPIO_Config  ov7725_exit.o
    0x080032a8   0x080032a8   0x00000012   Code   RO         3582    i.OV7725_exit_GPIO_Config  ov7725_exit.o
    0x080032ba   0x080032ba   0x00000002   PAD
    0x080032bc   0x080032bc   0x00000058   Code   RO         3583    i.OV7725_exit_Init  ov7725_exit.o
    0x08003314   0x08003314   0x00000098   Code   RO         3584    i.OV7725_exit_Light_Mode  ov7725_exit.o
    0x080033ac   0x080033ac   0x00000048   Code   RO         3705    i.OV7725_exit_SCCB_GPIO_Config  ov7725sccb_exit.o
    0x080033f4   0x080033f4   0x000000fc   Code   RO         3706    i.OV7725_exit_SCCB_ReadByte  ov7725sccb_exit.o
    0x080034f0   0x080034f0   0x00000054   Code   RO         3707    i.OV7725_exit_SCCB_SendByte  ov7725sccb_exit.o
    0x08003544   0x08003544   0x00000064   Code   RO         3708    i.OV7725_exit_SCCB_Start  ov7725sccb_exit.o
    0x080035a8   0x080035a8   0x0000003c   Code   RO         3709    i.OV7725_exit_SCCB_Stop  ov7725sccb_exit.o
    0x080035e4   0x080035e4   0x00000050   Code   RO         3710    i.OV7725_exit_SCCB_WaitAck  ov7725sccb_exit.o
    0x08003634   0x08003634   0x0000003e   Code   RO         3711    i.OV7725_exit_SCCB_WriteByte  ov7725sccb_exit.o
    0x08003672   0x08003672   0x0000000e   Code   RO         3712    i.OV7725_exit_SCCB_delay  ov7725sccb_exit.o
    0x08003680   0x08003680   0x0000008a   Code   RO         3585    i.OV7725_exit_Special_Effect  ov7725_exit.o
    0x0800370a   0x0800370a   0x00000002   PAD
    0x0800370c   0x0800370c   0x00000078   Code   RO         3586    i.OV7725_exit_VSYNC_GPIO_Config  ov7725_exit.o
    0x08003784   0x08003784   0x000000ca   Code   RO         3587    i.OV7725_exit_Window_Set  ov7725_exit.o
    0x0800384e   0x0800384e   0x0000003c   Code   RO         5335    i.ParkingDetect     parking_detection_processing.o
    0x0800388a   0x0800388a   0x00000002   PAD
    0x0800388c   0x0800388c   0x00000238   Code   RO         5232    i.Parking_information  lcd_interface_design.o
    0x08003ac4   0x08003ac4   0x000002cc   Code   RO         5336    i.Parking_management  parking_detection_processing.o
    0x08003d90   0x08003d90   0x000000a4   Code   RO         5337    i.Parking_recommendation  parking_detection_processing.o
    0x08003e34   0x08003e34   0x00000018   Code   RO         1700    i.RCC_AHBPeriphClockCmd  stm32f10x_rcc.o
    0x08003e4c   0x08003e4c   0x00000018   Code   RO         1701    i.RCC_APB1PeriphClockCmd  stm32f10x_rcc.o
    0x08003e64   0x08003e64   0x00000018   Code   RO         1703    i.RCC_APB2PeriphClockCmd  stm32f10x_rcc.o
    0x08003e7c   0x08003e7c   0x00000094   Code   RO         1711    i.RCC_GetClocksFreq  stm32f10x_rcc.o
    0x08003f10   0x08003f10   0x000000d0   Code   RO         5267    i.Scaling_Normalization  license_plate_recognition.o
    0x08003fe0   0x08003fe0   0x000000a8   Code   RO           17    i.SetSysClockTo72   system_stm32f10x.o
    0x08004088   0x08004088   0x00000138   Code   RO         5138    i.ShowCP            lcd_basic_application.o
    0x080041c0   0x080041c0   0x00000198   Code   RO         5139    i.ShowChar          lcd_basic_application.o
    0x08004358   0x08004358   0x00000058   Code   RO         5140    i.ShowString        lcd_basic_application.o
    0x080043b0   0x080043b0   0x000000b4   Code   RO         5141    i.ShowYW24          lcd_basic_application.o
    0x08004464   0x08004464   0x000000f8   Code   RO         5142    i.Show_Str          lcd_basic_application.o
    0x0800455c   0x0800455c   0x00000024   Code   RO         3769    i.Smoke_Init        smoke_sensor.o
    0x08004580   0x08004580   0x00000034   Code   RO         5539    i.SysInit           system.o
    0x080045b4   0x080045b4   0x00000038   Code   RO         3223    i.SysTickInit       systick.o
    0x080045ec   0x080045ec   0x00000012   Code   RO         5505    i.SysTick_Handler   board.o
    0x080045fe   0x080045fe   0x00000002   PAD
    0x08004600   0x08004600   0x00000050   Code   RO           19    i.SystemInit        system_stm32f10x.o
    0x08004650   0x08004650   0x00000014   Code   RO         2332    i.TIM_Cmd           stm32f10x_tim.o
    0x08004664   0x08004664   0x0000007c   Code   RO         2371    i.TIM_OC3Init       stm32f10x_tim.o
    0x080046e0   0x080046e0   0x0000000c   Code   RO         2374    i.TIM_OC3PreloadConfig  stm32f10x_tim.o
    0x080046ec   0x080046ec   0x00000064   Code   RO         2376    i.TIM_OC4Init       stm32f10x_tim.o
    0x08004750   0x08004750   0x00000014   Code   RO         2378    i.TIM_OC4PreloadConfig  stm32f10x_tim.o
    0x08004764   0x08004764   0x00000004   Code   RO         2395    i.TIM_SetCompare3   stm32f10x_tim.o
    0x08004768   0x08004768   0x00000006   Code   RO         2396    i.TIM_SetCompare4   stm32f10x_tim.o
    0x0800476e   0x0800476e   0x00000002   PAD
    0x08004770   0x08004770   0x0000009c   Code   RO         2403    i.TIM_TimeBaseInit  stm32f10x_tim.o
    0x0800480c   0x0800480c   0x000000ec   Code   RO         5433    i.TaskInit          task.o
    0x080048f8   0x080048f8   0x00000074   Code   RO         3318    i.USART3_IRQHandler  esp8266.o
    0x0800496c   0x0800496c   0x00000006   Code   RO         2851    i.USART_ClearFlag   stm32f10x_usart.o
    0x08004972   0x08004972   0x00000014   Code   RO         2855    i.USART_Cmd         stm32f10x_usart.o
    0x08004986   0x08004986   0x0000000e   Code   RO         2858    i.USART_GetFlagStatus  stm32f10x_usart.o
    0x08004994   0x08004994   0x0000003e   Code   RO         2859    i.USART_GetITStatus  stm32f10x_usart.o
    0x080049d2   0x080049d2   0x00000030   Code   RO         2861    i.USART_ITConfig    stm32f10x_usart.o
    0x08004a02   0x08004a02   0x00000002   PAD
    0x08004a04   0x08004a04   0x000000ac   Code   RO         2862    i.USART_Init        stm32f10x_usart.o
    0x08004ab0   0x08004ab0   0x00000008   Code   RO         2869    i.USART_ReceiveData  stm32f10x_usart.o
    0x08004ab8   0x08004ab8   0x00000008   Code   RO         2872    i.USART_SendData    stm32f10x_usart.o
    0x08004ac0   0x08004ac0   0x000000fc   Code   RO         3245    i.USART_printf      usart.o
    0x08004bbc   0x08004bbc   0x0000005c   Code   RO         5338    i.UrgentDetect      parking_detection_processing.o
    0x08004c18   0x08004c18   0x0000008c   Code   RO         3246    i.UsartInit         usart.o
    0x08004ca4   0x08004ca4   0x000000fc   Code   RO         5434    i.Vehicle_count     task.o
    0x08004da0   0x08004da0   0x000000bc   Code   RO         5435    i.WIFI_thread_entry  task.o
    0x08004e5c   0x08004e5c   0x00000044   Code   RO         4197    i.__rt_ffs          kservice.o
    0x08004ea0   0x08004ea0   0x00000014   Code   RO         3898    i._has_defunct_thread  idle.o
    0x08004eb4   0x08004eb4   0x000000a0   Code   RO         4987    i._msh_exec_cmd     msh.o
    0x08004f54   0x08004f54   0x00000074   Code   RO         4592    i._rt_thread_init   thread.o
    0x08004fc8   0x08004fc8   0x00000026   Code   RO         4711    i._rt_timer_init    timer.o
    0x08004fee   0x08004fee   0x00000020   Code   RO         4712    i._rt_timer_remove  timer.o
    0x0800500e   0x0800500e   0x00000002   PAD
    0x08005010   0x08005010   0x00000110   Code   RO         5233    i.alert             lcd_interface_design.o
    0x08005120   0x08005120   0x000000e8   Code   RO         4808    i.bus_fault_track   cpuport.o
    0x08005208   0x08005208   0x00000068   Code   RO         5339    i.button_process_init  parking_detection_processing.o
    0x08005270   0x08005270   0x00000180   Code   RO         5340    i.button_thread_entry  parking_detection_processing.o
    0x080053f0   0x080053f0   0x0000000a   Code   RO         4988    i.cmd_free          msh.o
    0x080053fa   0x080053fa   0x0000000a   Code   RO         4989    i.cmd_ps            msh.o
    0x08005404   0x08005404   0x000000c8   Code   RO         5436    i.entr_thread_entry  task.o
    0x080054cc   0x080054cc   0x00000080   Code   RO         5437    i.exit_thread_entry  task.o
    0x0800554c   0x0800554c   0x00000060   Code   RO         5052    i.finsh_get_prompt  shell.o
    0x080055ac   0x080055ac   0x00000014   Code   RO         5056    i.finsh_set_prompt_mode  shell.o
    0x080055c0   0x080055c0   0x0000000c   Code   RO         5057    i.finsh_system_function_init  shell.o
    0x080055cc   0x080055cc   0x00000094   Code   RO         5058    i.finsh_system_init  shell.o
    0x08005660   0x08005660   0x0000028c   Code   RO         5060    i.finsh_thread_entry  shell.o
    0x080058ec   0x080058ec   0x00000078   Code   RO         4809    i.hard_fault_track  cpuport.o
    0x08005964   0x08005964   0x00000020   Code   RO         4874    i.hello             cmd.o
    0x08005984   0x08005984   0x00000054   Code   RO         4875    i.list              cmd.o
    0x080059d8   0x080059d8   0x00000130   Code   RO         4876    i.list_event        cmd.o
    0x08005b08   0x08005b08   0x00000024   Code   RO         4877    i.list_find_init    cmd.o
    0x08005b2c   0x08005b2c   0x0000006a   Code   RO         4878    i.list_get_next     cmd.o
    0x08005b96   0x08005b96   0x00000002   PAD
    0x08005b98   0x08005b98   0x00000140   Code   RO         4879    i.list_mailbox      cmd.o
    0x08005cd8   0x08005cd8   0x0000006c   Code   RO         4371    i.list_mem          mem.o
    0x08005d44   0x08005d44   0x0000012c   Code   RO         4880    i.list_msgqueue     cmd.o
    0x08005e70   0x08005e70   0x00000120   Code   RO         4881    i.list_sem          cmd.o
    0x08005f90   0x08005f90   0x000001b8   Code   RO         4882    i.list_thread       cmd.o
    0x08006148   0x08006148   0x00000140   Code   RO         4883    i.list_timer        cmd.o
    0x08006288   0x08006288   0x0000000a   Code   RO         5482    i.main              main.o
    0x08006292   0x08006292   0x0000000e   Code   RO         3820    i.main_thread_entry  components.o
    0x080062a0   0x080062a0   0x000000d8   Code   RO         4810    i.mem_manage_fault_track  cpuport.o
    0x08006378   0x08006378   0x000000ac   Code   RO         4990    i.msh_auto_complete  msh.o
    0x08006424   0x08006424   0x00000064   Code   RO         4991    i.msh_exec          msh.o
    0x08006488   0x08006488   0x0000006c   Code   RO         4992    i.msh_help          msh.o
    0x080064f4   0x080064f4   0x00000004   Code   RO         4993    i.msh_is_used       msh.o
    0x080064f8   0x080064f8   0x000000d0   Code   RO         4994    i.msh_split         msh.o
    0x080065c8   0x080065c8   0x00000018   Code   RO         4884    i.object_split      cmd.o
    0x080065e0   0x080065e0   0x00000054   Code   RO         4372    i.plug_holes        mem.o
    0x08006634   0x08006634   0x0000012c   Code   RO         4199    i.print_number      kservice.o
    0x08006760   0x08006760   0x0000002c   Code   RO         3821    i.rt_application_init  components.o
    0x0800678c   0x0800678c   0x0000001a   Code   RO         4373    i.rt_calloc         mem.o
    0x080067a6   0x080067a6   0x00000002   PAD
    0x080067a8   0x080067a8   0x0000001c   Code   RO         3822    i.rt_components_board_init  components.o
    0x080067c4   0x080067c4   0x0000001c   Code   RO         3823    i.rt_components_init  components.o
    0x080067e0   0x080067e0   0x0000001c   Code   RO         4525    i.rt_enter_critical  scheduler.o
    0x080067fc   0x080067fc   0x00000020   Code   RO         3951    i.rt_event_create   ipc.o
    0x0800681c   0x0800681c   0x000000be   Code   RO         3955    i.rt_event_recv     ipc.o
    0x080068da   0x080068da   0x0000008c   Code   RO         3956    i.rt_event_send     ipc.o
    0x08006966   0x08006966   0x00000002   PAD
    0x08006968   0x08006968   0x00000038   Code   RO         4526    i.rt_exit_critical  scheduler.o
    0x080069a0   0x080069a0   0x000000c4   Code   RO         4374    i.rt_free           mem.o
    0x08006a64   0x08006a64   0x00000008   Code   RO         5506    i.rt_heap_begin_get  board.o
    0x08006a6c   0x08006a6c   0x00000008   Code   RO         5507    i.rt_heap_end_get   board.o
    0x08006a74   0x08006a74   0x0000001e   Code   RO         5508    i.rt_hw_board_init  board.o
    0x08006a92   0x08006a92   0x00000002   PAD
    0x08006a94   0x08006a94   0x00000044   Code   RO         3250    i.rt_hw_console_getchar  usart.o
    0x08006ad8   0x08006ad8   0x0000004c   Code   RO         3251    i.rt_hw_console_output  usart.o
    0x08006b24   0x08006b24   0x000001fc   Code   RO         4814    i.rt_hw_hard_fault_exception  cpuport.o
    0x08006d20   0x08006d20   0x0000003c   Code   RO         4815    i.rt_hw_stack_init  cpuport.o
    0x08006d5c   0x08006d5c   0x0000001c   Code   RO         4170    i.rt_interrupt_enter  irq.o
    0x08006d78   0x08006d78   0x0000001c   Code   RO         4172    i.rt_interrupt_leave  irq.o
    0x08006d94   0x08006d94   0x0000000e   Code   RO         3957    i.rt_ipc_list_resume  ipc.o
    0x08006da2   0x08006da2   0x0000002e   Code   RO         3958    i.rt_ipc_list_resume_all  ipc.o
    0x08006dd0   0x08006dd0   0x00000050   Code   RO         3959    i.rt_ipc_list_suspend  ipc.o
    0x08006e20   0x08006e20   0x00000020   Code   RO         4203    i.rt_kprintf        kservice.o
    0x08006e40   0x08006e40   0x0000000e   Code   RO         4449    i.rt_list_insert_after  object.o
    0x08006e4e   0x08006e4e   0x0000000e   Code   RO         4593    i.rt_list_insert_after  thread.o
    0x08006e5c   0x08006e5c   0x0000000e   Code   RO         4713    i.rt_list_insert_after  timer.o
    0x08006e6a   0x08006e6a   0x0000000e   Code   RO         3960    i.rt_list_insert_before  ipc.o
    0x08006e78   0x08006e78   0x0000000e   Code   RO         3961    i.rt_list_isempty   ipc.o
    0x08006e86   0x08006e86   0x0000000e   Code   RO         4714    i.rt_list_isempty   timer.o
    0x08006e94   0x08006e94   0x0000000e   Code   RO         4885    i.rt_list_isempty   cmd.o
    0x08006ea2   0x08006ea2   0x00000012   Code   RO         4886    i.rt_list_len       cmd.o
    0x08006eb4   0x08006eb4   0x00000012   Code   RO         4450    i.rt_list_remove    object.o
    0x08006ec6   0x08006ec6   0x00000012   Code   RO         4594    i.rt_list_remove    thread.o
    0x08006ed8   0x08006ed8   0x000000f0   Code   RO         4375    i.rt_malloc         mem.o
    0x08006fc8   0x08006fc8   0x0000004a   Code   RO         4207    i.rt_memcpy         kservice.o
    0x08007012   0x08007012   0x0000002e   Code   RO         4208    i.rt_memmove        kservice.o
    0x08007040   0x08007040   0x00000044   Code   RO         4209    i.rt_memset         kservice.o
    0x08007084   0x08007084   0x00000070   Code   RO         3971    i.rt_mq_create      ipc.o
    0x080070f4   0x080070f4   0x0000001a   Code   RO         3972    i.rt_mq_delete      ipc.o
    0x0800710e   0x0800710e   0x000000e4   Code   RO         3975    i.rt_mq_recv        ipc.o
    0x080071f2   0x080071f2   0x00000084   Code   RO         3976    i.rt_mq_send        ipc.o
    0x08007276   0x08007276   0x0000007e   Code   RO         3977    i.rt_mq_urgent      ipc.o
    0x080072f4   0x080072f4   0x0000004c   Code   RO         4451    i.rt_object_allocate  object.o
    0x08007340   0x08007340   0x00000026   Code   RO         4452    i.rt_object_delete  object.o
    0x08007366   0x08007366   0x00000020   Code   RO         4453    i.rt_object_detach  object.o
    0x08007386   0x08007386   0x00000002   PAD
    0x08007388   0x08007388   0x00000024   Code   RO         4455    i.rt_object_get_information  object.o
    0x080073ac   0x080073ac   0x00000050   Code   RO         4457    i.rt_object_init    object.o
    0x080073fc   0x080073fc   0x0000000e   Code   RO         4458    i.rt_object_is_systemobject  object.o
    0x0800740a   0x0800740a   0x00000002   PAD
    0x0800740c   0x0800740c   0x00000058   Code   RO         4527    i.rt_schedule       scheduler.o
    0x08007464   0x08007464   0x00000050   Code   RO         4528    i.rt_schedule_insert_thread  scheduler.o
    0x080074b4   0x080074b4   0x0000004c   Code   RO         4529    i.rt_schedule_remove_thread  scheduler.o
    0x08007500   0x08007500   0x00000020   Code   RO         3979    i.rt_sem_create     ipc.o
    0x08007520   0x08007520   0x00000024   Code   RO         3982    i.rt_sem_init       ipc.o
    0x08007544   0x08007544   0x0000003c   Code   RO         3983    i.rt_sem_release    ipc.o
    0x08007580   0x08007580   0x0000006e   Code   RO         3984    i.rt_sem_take       ipc.o
    0x080075ee   0x080075ee   0x00000002   PAD
    0x080075f0   0x080075f0   0x000000b0   Code   RO         4211    i.rt_show_version   kservice.o
    0x080076a0   0x080076a0   0x00000010   Code   RO         4217    i.rt_strlen         kservice.o
    0x080076b0   0x080076b0   0x00000026   Code   RO         4219    i.rt_strncpy        kservice.o
    0x080076d6   0x080076d6   0x00000002   PAD
    0x080076d8   0x080076d8   0x000000b0   Code   RO         4378    i.rt_system_heap_init  mem.o
    0x08007788   0x08007788   0x00000034   Code   RO         4530    i.rt_system_scheduler_init  scheduler.o
    0x080077bc   0x080077bc   0x00000028   Code   RO         4531    i.rt_system_scheduler_start  scheduler.o
    0x080077e4   0x080077e4   0x00000018   Code   RO         4715    i.rt_system_timer_init  timer.o
    0x080077fc   0x080077fc   0x00000002   Code   RO         4716    i.rt_system_timer_thread_init  timer.o
    0x080077fe   0x080077fe   0x00000048   Code   RO         4596    i.rt_thread_create  thread.o
    0x08007846   0x08007846   0x00000002   PAD
    0x08007848   0x08007848   0x00000058   Code   RO         4600    i.rt_thread_exit    thread.o
    0x080078a0   0x080078a0   0x0000001c   Code   RO         3900    i.rt_thread_idle_entry  idle.o
    0x080078bc   0x080078bc   0x00000078   Code   RO         3901    i.rt_thread_idle_excute  idle.o
    0x08007934   0x08007934   0x00000038   Code   RO         3903    i.rt_thread_idle_init  idle.o
    0x0800796c   0x0800796c   0x00000030   Code   RO         4602    i.rt_thread_init    thread.o
    0x0800799c   0x0800799c   0x0000000e   Code   RO         4603    i.rt_thread_mdelay  thread.o
    0x080079aa   0x080079aa   0x0000003c   Code   RO         4604    i.rt_thread_resume  thread.o
    0x080079e6   0x080079e6   0x00000002   PAD
    0x080079e8   0x080079e8   0x0000000c   Code   RO         4605    i.rt_thread_self    thread.o
    0x080079f4   0x080079f4   0x00000040   Code   RO         4606    i.rt_thread_sleep   thread.o
    0x08007a34   0x08007a34   0x0000002c   Code   RO         4607    i.rt_thread_startup  thread.o
    0x08007a60   0x08007a60   0x00000042   Code   RO         4608    i.rt_thread_suspend  thread.o
    0x08007aa2   0x08007aa2   0x00000020   Code   RO         4609    i.rt_thread_timeout  thread.o
    0x08007ac2   0x08007ac2   0x00000002   PAD
    0x08007ac4   0x08007ac4   0x00000060   Code   RO         4610    i.rt_thread_yield   thread.o
    0x08007b24   0x08007b24   0x00000032   Code   RO         3782    i.rt_tick_from_millisecond  clock.o
    0x08007b56   0x08007b56   0x00000002   PAD
    0x08007b58   0x08007b58   0x0000000c   Code   RO         3783    i.rt_tick_get       clock.o
    0x08007b64   0x08007b64   0x0000002c   Code   RO         3784    i.rt_tick_increase  clock.o
    0x08007b90   0x08007b90   0x0000006c   Code   RO         4717    i.rt_timer_check    timer.o
    0x08007bfc   0x08007bfc   0x00000030   Code   RO         4718    i.rt_timer_control  timer.o
    0x08007c2c   0x08007c2c   0x0000002e   Code   RO         4719    i.rt_timer_create   timer.o
    0x08007c5a   0x08007c5a   0x00000020   Code   RO         4721    i.rt_timer_detach   timer.o
    0x08007c7a   0x08007c7a   0x00000028   Code   RO         4722    i.rt_timer_init     timer.o
    0x08007ca2   0x08007ca2   0x00000002   PAD
    0x08007ca4   0x08007ca4   0x000000a0   Code   RO         4724    i.rt_timer_start    timer.o
    0x08007d44   0x08007d44   0x0000002e   Code   RO         4725    i.rt_timer_stop     timer.o
    0x08007d72   0x08007d72   0x00000002   PAD
    0x08007d74   0x08007d74   0x00000264   Code   RO         4222    i.rt_vsnprintf      kservice.o
    0x08007fd8   0x08007fd8   0x00000004   Code   RO         3824    i.rti_board_end     components.o
    0x08007fdc   0x08007fdc   0x00000004   Code   RO         3825    i.rti_board_start   components.o
    0x08007fe0   0x08007fe0   0x00000004   Code   RO         3826    i.rti_end           components.o
    0x08007fe4   0x08007fe4   0x00000004   Code   RO         3827    i.rti_start         components.o
    0x08007fe8   0x08007fe8   0x0000002a   Code   RO         3828    i.rtthread_startup  components.o
    0x08008012   0x08008012   0x00000002   PAD
    0x08008014   0x08008014   0x00000030   Code   RO         4887    i.show_wait_queue   cmd.o
    0x08008044   0x08008044   0x00000028   Code   RO         4224    i.skip_atoi         kservice.o
    0x0800806c   0x0800806c   0x000000d0   Code   RO         4816    i.usage_fault_track  cpuport.o
    0x0800813c   0x0800813c   0x0000000a   Code   RO         4888    i.version           cmd.o
    0x08008146   0x08008146   0x00000002   PAD
    0x08008148   0x08008148   0x00000150   Code   RO         5621    x$fpl$dadd          fz_ws.l(daddsub_clz.o)
    0x08008298   0x08008298   0x0000005a   Code   RO         5627    x$fpl$dfixu         fz_ws.l(dfixu.o)
    0x080082f2   0x080082f2   0x00000026   Code   RO         5631    x$fpl$dfltu         fz_ws.l(dflt_clz.o)
    0x08008318   0x08008318   0x00000154   Code   RO         5637    x$fpl$dmul          fz_ws.l(dmul.o)
    0x0800846c   0x0800846c   0x0000009c   Code   RO         5649    x$fpl$dnaninf       fz_ws.l(dnaninf.o)
    0x08008508   0x08008508   0x0000000c   Code   RO         5651    x$fpl$dretinf       fz_ws.l(dretinf.o)
    0x08008514   0x08008514   0x000001d4   Code   RO         5623    x$fpl$dsub          fz_ws.l(daddsub_clz.o)
    0x080086e8   0x080086e8   0x00000000   Code   RO         5653    x$fpl$usenofp       fz_ws.l(usenofp.o)
    0x080086e8   0x080086e8   0x00000122   Data   RO         4226    .constdata          kservice.o
    0x0800880a   0x0800880a   0x00000009   Data   RO         4380    .constdata          mem.o
    0x08008813   0x08008813   0x00000006   Data   RO         4889    .constdata          cmd.o
    0x08008819   0x08008819   0x00000008   Data   RO         4890    .constdata          cmd.o
    0x08008821   0x08008821   0x0000000e   Data   RO         4891    .constdata          cmd.o
    0x0800882f   0x0800882f   0x0000000c   Data   RO         4892    .constdata          cmd.o
    0x0800883b   0x0800883b   0x00000012   Data   RO         4893    .constdata          cmd.o
    0x0800884d   0x0800884d   0x00000009   Data   RO         4894    .constdata          cmd.o
    0x08008856   0x08008856   0x0000000f   Data   RO         4895    .constdata          cmd.o
    0x08008865   0x08008865   0x0000000b   Data   RO         4896    .constdata          cmd.o
    0x08008870   0x08008870   0x00000011   Data   RO         4897    .constdata          cmd.o
    0x08008881   0x08008881   0x0000000d   Data   RO         4898    .constdata          cmd.o
    0x0800888e   0x0800888e   0x00000013   Data   RO         4899    .constdata          cmd.o
    0x080088a1   0x080088a1   0x0000000e   Data   RO         4900    .constdata          cmd.o
    0x080088af   0x080088af   0x00000014   Data   RO         4901    .constdata          cmd.o
    0x080088c3   0x080088c3   0x0000000b   Data   RO         4902    .constdata          cmd.o
    0x080088ce   0x080088ce   0x00000011   Data   RO         4903    .constdata          cmd.o
    0x080088df   0x080088df   0x00000005   Data   RO         4904    .constdata          cmd.o
    0x080088e4   0x080088e4   0x0000000b   Data   RO         4995    .constdata          msh.o
    0x080088ef   0x080088ef   0x00000009   Data   RO         4996    .constdata          msh.o
    0x080088f8   0x080088f8   0x0000000b   Data   RO         4997    .constdata          msh.o
    0x08008903   0x08008903   0x000018ae   Data   RO         5143    .constdata          lcd_basic_application.o
    0x0800a1b1   0x0800a1b1   0x00000e2e   Data   RO         5269    .constdata          license_plate_recognition.o
    0x0800afdf   0x0800afdf   0x00000001   PAD
    0x0800afe0   0x0800afe0   0x00000044   Data   RO         4905    .conststring        cmd.o
    0x0800b024   0x0800b024   0x0000003d   Data   RO         5438    .conststring        task.o
    0x0800b061   0x0800b061   0x00000003   PAD
    0x0800b064   0x0800b064   0x00000004   Data   RO         3829    .rti_fn.0           components.o
    0x0800b068   0x0800b068   0x00000004   Data   RO         3830    .rti_fn.0.end       components.o
    0x0800b06c   0x0800b06c   0x00000004   Data   RO         3831    .rti_fn.1.end       components.o
    0x0800b070   0x0800b070   0x00000004   Data   RO         3441    .rti_fn.6           lcd.o
    0x0800b074   0x0800b074   0x00000004   Data   RO         5063    .rti_fn.6           shell.o
    0x0800b078   0x0800b078   0x00000004   Data   RO         5343    .rti_fn.6           parking_detection_processing.o
    0x0800b07c   0x0800b07c   0x00000004   Data   RO         3832    .rti_fn.6.end       components.o
    0x0800b080   0x0800b080   0x00000008   Data   RO         4382    FSymTab             mem.o
    0x0800b088   0x0800b088   0x00000080   Data   RO         4906    FSymTab             cmd.o
    0x0800b108   0x0800b108   0x00000018   Data   RO         4998    FSymTab             msh.o
    0x0800b120   0x0800b120   0x00000020   Data   RO         5810    Region$$Table       anon$$obj.o


    Execution Region RW_IRAM1 (Exec base: 0x20000000, Load base: 0x0800b140, Size: 0x0000cc20, Max: 0x00010000, ABSOLUTE, COMPRESSED[0x00000144])

    Exec Addr    Load Addr    Size         Type   Attr      Idx    E Section Name        Object

    0x20000000   COMPRESSED   0x00000014   Data   RW           20    .data               system_stm32f10x.o
    0x20000014   COMPRESSED   0x00000014   Data   RW         1731    .data               stm32f10x_rcc.o
    0x20000028   COMPRESSED   0x00000001   Data   RW         3320    .data               esp8266.o
    0x20000029   COMPRESSED   0x00000001   PAD
    0x2000002a   COMPRESSED   0x00000002   Data   RW         3438    .data               lcd.o
    0x2000002c   COMPRESSED   0x00000002   Data   RW         3439    .data               lcd.o
    0x2000002e   COMPRESSED   0x0000009c   Data   RW         3515    .data               ov7725_entrance.o
    0x200000ca   COMPRESSED   0x0000009c   Data   RW         3589    .data               ov7725_exit.o
    0x20000166   COMPRESSED   0x00000002   PAD
    0x20000168   COMPRESSED   0x00000004   Data   RW         3786    .data               clock.o
    0x2000016c   COMPRESSED   0x00000001   Data   RW         4173    .data               irq.o
    0x2000016d   COMPRESSED   0x00000003   PAD
    0x20000170   COMPRESSED   0x00000018   Data   RW         4381    .data               mem.o
    0x20000188   COMPRESSED   0x00000060   Data   RW         4460    .data               object.o
    0x200001e8   COMPRESSED   0x00000014   Data   RW         4533    .data               scheduler.o
    0x200001fc   COMPRESSED   0x0000000c   Data   RW         4726    .data               timer.o
    0x20000208   COMPRESSED   0x00000004   Data   RW         4817    .data               cpuport.o
    0x2000020c   COMPRESSED   0x00000004   Data   RW         4818    .data               cpuport.o
    0x20000210   COMPRESSED   0x00000004   Data   RW         4819    .data               cpuport.o
    0x20000214   COMPRESSED   0x00000004   Data   RW         4820    .data               cpuport.o
    0x20000218   COMPRESSED   0x00000018   Data   RW         5062    .data               shell.o
    0x20000230   COMPRESSED   0x00000010   Data   RW         5270    .data               license_plate_recognition.o
    0x20000240   COMPRESSED   0x00000011   Data   RW         5342    .data               parking_detection_processing.o
    0x20000251   COMPRESSED   0x00000003   PAD
    0x20000254   COMPRESSED   0x000000a0   Data   RW         5439    .data               task.o
    0x200002f4   COMPRESSED   0x00000004   Data   RW         5485    .data               main.o
    0x200002f8   COMPRESSED   0x00000004   Data   RW         5486    .data               main.o
    0x200002fc   COMPRESSED   0x00000004   Data   RW         5487    .data               main.o
    0x20000300   COMPRESSED   0x00000004   Data   RW         5488    .data               main.o
    0x20000304        -       0x00000402   Zero   RW         3319    .bss                esp8266.o
    0x20000706        -       0x0000000e   Zero   RW         3437    .bss                lcd.o
    0x20000714        -       0x000001a0   Zero   RW         3905    .bss                idle.o
    0x200008b4        -       0x00000080   Zero   RW         4225    .bss                kservice.o
    0x20000934        -       0x00000028   Zero   RW         4379    .bss                mem.o
    0x2000095c        -       0x00000040   Zero   RW         4532    .bss                scheduler.o
    0x2000099c        -       0x00000081   Zero   RW         5061    .bss                shell.o
    0x20000a1d        -       0x00003b2e   Zero   RW         5268    .bss                license_plate_recognition.o
    0x2000454b   COMPRESSED   0x00000001   PAD
    0x2000454c        -       0x00000070   Zero   RW         5341    .bss                parking_detection_processing.o
    0x200045bc        -       0x00008000   Zero   RW         5509    .bss                board.o
    0x2000c5bc        -       0x00000060   Zero   RW         5682    .bss                c_w.l(libspace.o)
    0x2000c61c   COMPRESSED   0x00000004   PAD
    0x2000c620        -       0x00000200   Zero   RW          126    HEAP                startup_stm32f10x_hd.o
    0x2000c820        -       0x00000400   Zero   RW          125    STACK               startup_stm32f10x_hd.o


==============================================================================

Image component sizes


      Code (inc. data)   RO Data    RW Data    ZI Data      Debug   Object Name

        64          8          0          0      32768       2559   board.o
       106         12          0          4          0       1840   clock.o
      2344        874        405          0          0      17215   cmd.o
       182         30         16          0          0       5842   components.o
       244         26          0          0          0        788   context_rvds.o
         0          0          0          0          0       4540   core_cm3.o
      1344        720          0         16          0       5638   cpuport.o
      1240        288          0          1       1026       9863   esp8266.o
       224         28          0          0        416       5734   idle.o
        64         10          0          0          0        556   infrared_barrier.o
      1392          0          0          0          0      16294   ipc.o
        56         12          0          1          0       1614   irq.o
        42          0          0          0          0       9952   iwdg.o
      1470        160        290          0        128      12001   kservice.o
       560         84          4          4         14       8845   lcd.o
      2604        112       6318          0          0      16596   lcd_basic_application.o
      1316        178          0          0          0       2340   lcd_interface_design.o
      3128        236       3630         16      15150      11790   license_plate_recognition.o
        10          0          0         16          0        939   main.o
       830        250         17         24         40       5206   mem.o
       120         16          0          0          0       1595   misc.o
       772        154         55          0          0       8513   msh.o
       308          6          0         96          0       8364   object.o
      1108         66          0        156          0       7868   ov7725_entrance.o
      1096         60          0        156          0       7788   ov7725_exit.o
       720         32          0          0          0       5549   ov7725sccb_entrance.o
       724         34          0          0          0       5552   ov7725sccb_exit.o
      2094        342          4         17        112      12778   parking_detection_processing.o
       180         12          0          0          0       1515   pwm.o
       420         58          0         20         64       8166   scheduler.o
       928        138          4         24        129       9184   shell.o
        36          4          0          0          0        513   smoke_sensor.o
        64         26        304          0       1536        800   startup_stm32f10x_hd.o
       172         20          0          0          0       2839   stm32f10x_exti.o
       232          6          0          0          0       1933   stm32f10x_fsmc.o
       218          6          0          0          0       4462   stm32f10x_gpio.o
        68         30          0          0          0       2534   stm32f10x_iwdg.o
       220         34          0         20          0       5178   stm32f10x_rcc.o
       442         60          0          0          0       6670   stm32f10x_tim.o
       338          6          0          0          0       7055   stm32f10x_usart.o
       166          0          0          0          0       1426   system.o
       248         24          0         20          0     260365   system_stm32f10x.o
        56          8          0          0          0      15661   systick.o
      1112        246         61        160          0       5076   task.o
       744         40          0          0          0      11835   thread.o
       604         18          0         12          0      11678   timer.o
       536         18          0          0          0       3630   usart.o

    ----------------------------------------------------------------------
     30998       4492      11144        772      51384     558679   Object Totals
         0          0         32          0          0          0   (incl. Generated)
        52          0          4          9          1          0   (incl. Padding)

    ----------------------------------------------------------------------

      Code (inc. data)   RO Data    RW Data    ZI Data      Debug   Library Member Name

        90          0          0          0          0          0   __dczerorl2.o
         8          0          0          0          0         68   __main.o
       104          0          0          0          0         84   __printf.o
         0          0          0          0          0          0   __rtentry.o
        12          0          0          0          0          0   __rtentry2.o
         6          0          0          0          0          0   __rtentry4.o
        52          8          0          0          0          0   __scatter.o
        28          0          0          0          0          0   __scatter_zi.o
         6          0          0          0          0          0   _printf_c.o
        44          0          0          0          0        108   _printf_char.o
        48          6          0          0          0         96   _printf_char_common.o
         6          0          0          0          0          0   _printf_d.o
       120         16          0          0          0         92   _printf_dec.o
       178          0          0          0          0         88   _printf_intcommon.o
         0          0          0          0          0          0   _printf_percent.o
         4          0          0          0          0          0   _printf_percent_end.o
         6          0          0          0          0          0   _printf_s.o
        82          0          0          0          0         80   _printf_str.o
        10          0          0          0          0         68   _sputc.o
        18          0          0          0          0         80   exit.o
         6          0          0          0          0        152   heapauxi.o
         0          0          0          0          0          0   indicate_semi.o
         2          0          0          0          0          0   libinit.o
         2          0          0          0          0          0   libinit2.o
         2          0          0          0          0          0   libshutdown.o
         2          0          0          0          0          0   libshutdown2.o
         8          4          0          0         96         68   libspace.o
        40          6          0          0          0         84   noretval__2sprintf.o
        68          0          0          0          0         68   rt_memclr.o
        78          0          0          0          0         80   rt_memclr_w.o
       100          0          0          0          0         80   rt_memcpy_w.o
         2          0          0          0          0          0   rtexit.o
        10          0          0          0          0          0   rtexit2.o
        24          0          0          0          0         68   strcat.o
       128          0          0          0          0         68   strcmpv7m.o
        72          0          0          0          0         80   strcpy.o
        62          0          0          0          0         76   strlen.o
       150          0          0          0          0         80   strncmp.o
        86          0          0          0          0         76   strncpy.o
        36          0          0          0          0         80   strstr.o
        12          4          0          0          0         68   sys_exit.o
        74          0          0          0          0         80   sys_stackheap_outer.o
         2          0          0          0          0         68   use_no_semi.o
       804         16          0          0          0        272   daddsub_clz.o
        90          4          0          0          0         92   dfixu.o
        38          0          0          0          0         68   dflt_clz.o
       340         12          0          0          0        104   dmul.o
       156          4          0          0          0         92   dnaninf.o
        12          0          0          0          0         68   dretinf.o
         0          0          0          0          0          0   usenofp.o

    ----------------------------------------------------------------------
      3234         80          0          0        100       2736   Library Totals
         6          0          0          0          4          0   (incl. Padding)

    ----------------------------------------------------------------------

      Code (inc. data)   RO Data    RW Data    ZI Data      Debug   Library Name

      1788         44          0          0         96       2040   c_w.l
      1440         36          0          0          0        696   fz_ws.l

    ----------------------------------------------------------------------
      3234         80          0          0        100       2736   Library Totals

    ----------------------------------------------------------------------

==============================================================================


      Code (inc. data)   RO Data    RW Data    ZI Data      Debug   

     34232       4572      11144        772      51484     544667   Grand Totals
     34232       4572      11144        324      51484     544667   ELF Image Totals (compressed)
     34232       4572      11144        324          0          0   ROM Totals

==============================================================================

    Total RO  Size (Code + RO Data)                45376 (  44.31kB)
    Total RW  Size (RW Data + ZI Data)             52256 (  51.03kB)
    Total ROM Size (Code + RO Data + RW Data)      45700 (  44.63kB)

==============================================================================

